
ctarget:     file format elf64-x86-64


Disassembly of section .init:

0000000000400c48 <_init>:
  400c48:	48 83 ec 08          	sub    $0x8,%rsp
  400c4c:	48 8b 05 a5 43 20 00 	mov    0x2043a5(%rip),%rax        # 604ff8 <__gmon_start__>
  400c53:	48 85 c0             	test   %rax,%rax
  400c56:	74 05                	je     400c5d <_init+0x15>
  400c58:	e8 43 02 00 00       	callq  400ea0 <__gmon_start__@plt>
  400c5d:	48 83 c4 08          	add    $0x8,%rsp
  400c61:	c3                   	retq   

Disassembly of section .plt:

0000000000400c70 <.plt>:
  400c70:	ff 35 92 43 20 00    	pushq  0x204392(%rip)        # 605008 <_GLOBAL_OFFSET_TABLE_+0x8>
  400c76:	ff 25 94 43 20 00    	jmpq   *0x204394(%rip)        # 605010 <_GLOBAL_OFFSET_TABLE_+0x10>
  400c7c:	0f 1f 40 00          	nopl   0x0(%rax)

0000000000400c80 <strcasecmp@plt>:
  400c80:	ff 25 92 43 20 00    	jmpq   *0x204392(%rip)        # 605018 <strcasecmp@GLIBC_2.2.5>
  400c86:	68 00 00 00 00       	pushq  $0x0
  400c8b:	e9 e0 ff ff ff       	jmpq   400c70 <.plt>

0000000000400c90 <__errno_location@plt>:
  400c90:	ff 25 8a 43 20 00    	jmpq   *0x20438a(%rip)        # 605020 <__errno_location@GLIBC_2.2.5>
  400c96:	68 01 00 00 00       	pushq  $0x1
  400c9b:	e9 d0 ff ff ff       	jmpq   400c70 <.plt>

0000000000400ca0 <srandom@plt>:
  400ca0:	ff 25 82 43 20 00    	jmpq   *0x204382(%rip)        # 605028 <srandom@GLIBC_2.2.5>
  400ca6:	68 02 00 00 00       	pushq  $0x2
  400cab:	e9 c0 ff ff ff       	jmpq   400c70 <.plt>

0000000000400cb0 <strncmp@plt>:
  400cb0:	ff 25 7a 43 20 00    	jmpq   *0x20437a(%rip)        # 605030 <strncmp@GLIBC_2.2.5>
  400cb6:	68 03 00 00 00       	pushq  $0x3
  400cbb:	e9 b0 ff ff ff       	jmpq   400c70 <.plt>

0000000000400cc0 <strcpy@plt>:
  400cc0:	ff 25 72 43 20 00    	jmpq   *0x204372(%rip)        # 605038 <strcpy@GLIBC_2.2.5>
  400cc6:	68 04 00 00 00       	pushq  $0x4
  400ccb:	e9 a0 ff ff ff       	jmpq   400c70 <.plt>

0000000000400cd0 <puts@plt>:
  400cd0:	ff 25 6a 43 20 00    	jmpq   *0x20436a(%rip)        # 605040 <puts@GLIBC_2.2.5>
  400cd6:	68 05 00 00 00       	pushq  $0x5
  400cdb:	e9 90 ff ff ff       	jmpq   400c70 <.plt>

0000000000400ce0 <write@plt>:
  400ce0:	ff 25 62 43 20 00    	jmpq   *0x204362(%rip)        # 605048 <write@GLIBC_2.2.5>
  400ce6:	68 06 00 00 00       	pushq  $0x6
  400ceb:	e9 80 ff ff ff       	jmpq   400c70 <.plt>

0000000000400cf0 <__stack_chk_fail@plt>:
  400cf0:	ff 25 5a 43 20 00    	jmpq   *0x20435a(%rip)        # 605050 <__stack_chk_fail@GLIBC_2.4>
  400cf6:	68 07 00 00 00       	pushq  $0x7
  400cfb:	e9 70 ff ff ff       	jmpq   400c70 <.plt>

0000000000400d00 <mmap@plt>:
  400d00:	ff 25 52 43 20 00    	jmpq   *0x204352(%rip)        # 605058 <mmap@GLIBC_2.2.5>
  400d06:	68 08 00 00 00       	pushq  $0x8
  400d0b:	e9 60 ff ff ff       	jmpq   400c70 <.plt>

0000000000400d10 <memset@plt>:
  400d10:	ff 25 4a 43 20 00    	jmpq   *0x20434a(%rip)        # 605060 <memset@GLIBC_2.2.5>
  400d16:	68 09 00 00 00       	pushq  $0x9
  400d1b:	e9 50 ff ff ff       	jmpq   400c70 <.plt>

0000000000400d20 <alarm@plt>:
  400d20:	ff 25 42 43 20 00    	jmpq   *0x204342(%rip)        # 605068 <alarm@GLIBC_2.2.5>
  400d26:	68 0a 00 00 00       	pushq  $0xa
  400d2b:	e9 40 ff ff ff       	jmpq   400c70 <.plt>

0000000000400d30 <close@plt>:
  400d30:	ff 25 3a 43 20 00    	jmpq   *0x20433a(%rip)        # 605070 <close@GLIBC_2.2.5>
  400d36:	68 0b 00 00 00       	pushq  $0xb
  400d3b:	e9 30 ff ff ff       	jmpq   400c70 <.plt>

0000000000400d40 <read@plt>:
  400d40:	ff 25 32 43 20 00    	jmpq   *0x204332(%rip)        # 605078 <read@GLIBC_2.2.5>
  400d46:	68 0c 00 00 00       	pushq  $0xc
  400d4b:	e9 20 ff ff ff       	jmpq   400c70 <.plt>

0000000000400d50 <__libc_start_main@plt>:
  400d50:	ff 25 2a 43 20 00    	jmpq   *0x20432a(%rip)        # 605080 <__libc_start_main@GLIBC_2.2.5>
  400d56:	68 0d 00 00 00       	pushq  $0xd
  400d5b:	e9 10 ff ff ff       	jmpq   400c70 <.plt>

0000000000400d60 <signal@plt>:
  400d60:	ff 25 22 43 20 00    	jmpq   *0x204322(%rip)        # 605088 <signal@GLIBC_2.2.5>
  400d66:	68 0e 00 00 00       	pushq  $0xe
  400d6b:	e9 00 ff ff ff       	jmpq   400c70 <.plt>

0000000000400d70 <gethostbyname@plt>:
  400d70:	ff 25 1a 43 20 00    	jmpq   *0x20431a(%rip)        # 605090 <gethostbyname@GLIBC_2.2.5>
  400d76:	68 0f 00 00 00       	pushq  $0xf
  400d7b:	e9 f0 fe ff ff       	jmpq   400c70 <.plt>

0000000000400d80 <__memmove_chk@plt>:
  400d80:	ff 25 12 43 20 00    	jmpq   *0x204312(%rip)        # 605098 <__memmove_chk@GLIBC_2.3.4>
  400d86:	68 10 00 00 00       	pushq  $0x10
  400d8b:	e9 e0 fe ff ff       	jmpq   400c70 <.plt>

0000000000400d90 <strtol@plt>:
  400d90:	ff 25 0a 43 20 00    	jmpq   *0x20430a(%rip)        # 6050a0 <strtol@GLIBC_2.2.5>
  400d96:	68 11 00 00 00       	pushq  $0x11
  400d9b:	e9 d0 fe ff ff       	jmpq   400c70 <.plt>

0000000000400da0 <memcpy@plt>:
  400da0:	ff 25 02 43 20 00    	jmpq   *0x204302(%rip)        # 6050a8 <memcpy@GLIBC_2.14>
  400da6:	68 12 00 00 00       	pushq  $0x12
  400dab:	e9 c0 fe ff ff       	jmpq   400c70 <.plt>

0000000000400db0 <time@plt>:
  400db0:	ff 25 fa 42 20 00    	jmpq   *0x2042fa(%rip)        # 6050b0 <time@GLIBC_2.2.5>
  400db6:	68 13 00 00 00       	pushq  $0x13
  400dbb:	e9 b0 fe ff ff       	jmpq   400c70 <.plt>

0000000000400dc0 <random@plt>:
  400dc0:	ff 25 f2 42 20 00    	jmpq   *0x2042f2(%rip)        # 6050b8 <random@GLIBC_2.2.5>
  400dc6:	68 14 00 00 00       	pushq  $0x14
  400dcb:	e9 a0 fe ff ff       	jmpq   400c70 <.plt>

0000000000400dd0 <_IO_getc@plt>:
  400dd0:	ff 25 ea 42 20 00    	jmpq   *0x2042ea(%rip)        # 6050c0 <_IO_getc@GLIBC_2.2.5>
  400dd6:	68 15 00 00 00       	pushq  $0x15
  400ddb:	e9 90 fe ff ff       	jmpq   400c70 <.plt>

0000000000400de0 <__isoc99_sscanf@plt>:
  400de0:	ff 25 e2 42 20 00    	jmpq   *0x2042e2(%rip)        # 6050c8 <__isoc99_sscanf@GLIBC_2.7>
  400de6:	68 16 00 00 00       	pushq  $0x16
  400deb:	e9 80 fe ff ff       	jmpq   400c70 <.plt>

0000000000400df0 <munmap@plt>:
  400df0:	ff 25 da 42 20 00    	jmpq   *0x2042da(%rip)        # 6050d0 <munmap@GLIBC_2.2.5>
  400df6:	68 17 00 00 00       	pushq  $0x17
  400dfb:	e9 70 fe ff ff       	jmpq   400c70 <.plt>

0000000000400e00 <__printf_chk@plt>:
  400e00:	ff 25 d2 42 20 00    	jmpq   *0x2042d2(%rip)        # 6050d8 <__printf_chk@GLIBC_2.3.4>
  400e06:	68 18 00 00 00       	pushq  $0x18
  400e0b:	e9 60 fe ff ff       	jmpq   400c70 <.plt>

0000000000400e10 <fopen@plt>:
  400e10:	ff 25 ca 42 20 00    	jmpq   *0x2042ca(%rip)        # 6050e0 <fopen@GLIBC_2.2.5>
  400e16:	68 19 00 00 00       	pushq  $0x19
  400e1b:	e9 50 fe ff ff       	jmpq   400c70 <.plt>

0000000000400e20 <getopt@plt>:
  400e20:	ff 25 c2 42 20 00    	jmpq   *0x2042c2(%rip)        # 6050e8 <getopt@GLIBC_2.2.5>
  400e26:	68 1a 00 00 00       	pushq  $0x1a
  400e2b:	e9 40 fe ff ff       	jmpq   400c70 <.plt>

0000000000400e30 <strtoul@plt>:
  400e30:	ff 25 ba 42 20 00    	jmpq   *0x2042ba(%rip)        # 6050f0 <strtoul@GLIBC_2.2.5>
  400e36:	68 1b 00 00 00       	pushq  $0x1b
  400e3b:	e9 30 fe ff ff       	jmpq   400c70 <.plt>

0000000000400e40 <gethostname@plt>:
  400e40:	ff 25 b2 42 20 00    	jmpq   *0x2042b2(%rip)        # 6050f8 <gethostname@GLIBC_2.2.5>
  400e46:	68 1c 00 00 00       	pushq  $0x1c
  400e4b:	e9 20 fe ff ff       	jmpq   400c70 <.plt>

0000000000400e50 <exit@plt>:
  400e50:	ff 25 aa 42 20 00    	jmpq   *0x2042aa(%rip)        # 605100 <exit@GLIBC_2.2.5>
  400e56:	68 1d 00 00 00       	pushq  $0x1d
  400e5b:	e9 10 fe ff ff       	jmpq   400c70 <.plt>

0000000000400e60 <connect@plt>:
  400e60:	ff 25 a2 42 20 00    	jmpq   *0x2042a2(%rip)        # 605108 <connect@GLIBC_2.2.5>
  400e66:	68 1e 00 00 00       	pushq  $0x1e
  400e6b:	e9 00 fe ff ff       	jmpq   400c70 <.plt>

0000000000400e70 <__fprintf_chk@plt>:
  400e70:	ff 25 9a 42 20 00    	jmpq   *0x20429a(%rip)        # 605110 <__fprintf_chk@GLIBC_2.3.4>
  400e76:	68 1f 00 00 00       	pushq  $0x1f
  400e7b:	e9 f0 fd ff ff       	jmpq   400c70 <.plt>

0000000000400e80 <__sprintf_chk@plt>:
  400e80:	ff 25 92 42 20 00    	jmpq   *0x204292(%rip)        # 605118 <__sprintf_chk@GLIBC_2.3.4>
  400e86:	68 20 00 00 00       	pushq  $0x20
  400e8b:	e9 e0 fd ff ff       	jmpq   400c70 <.plt>

0000000000400e90 <socket@plt>:
  400e90:	ff 25 8a 42 20 00    	jmpq   *0x20428a(%rip)        # 605120 <socket@GLIBC_2.2.5>
  400e96:	68 21 00 00 00       	pushq  $0x21
  400e9b:	e9 d0 fd ff ff       	jmpq   400c70 <.plt>

Disassembly of section .plt.got:

0000000000400ea0 <__gmon_start__@plt>:
  400ea0:	ff 25 52 41 20 00    	jmpq   *0x204152(%rip)        # 604ff8 <__gmon_start__>
  400ea6:	66 90                	xchg   %ax,%ax

Disassembly of section .text:

0000000000400eb0 <_start>:
  400eb0:	31 ed                	xor    %ebp,%ebp
  400eb2:	49 89 d1             	mov    %rdx,%r9
  400eb5:	5e                   	pop    %rsi
  400eb6:	48 89 e2             	mov    %rsp,%rdx
  400eb9:	48 83 e4 f0          	and    $0xfffffffffffffff0,%rsp
  400ebd:	50                   	push   %rax
  400ebe:	54                   	push   %rsp
  400ebf:	49 c7 c0 b0 2e 40 00 	mov    $0x402eb0,%r8
  400ec6:	48 c7 c1 40 2e 40 00 	mov    $0x402e40,%rcx
  400ecd:	48 c7 c7 b5 11 40 00 	mov    $0x4011b5,%rdi
  400ed4:	e8 77 fe ff ff       	callq  400d50 <__libc_start_main@plt>
  400ed9:	f4                   	hlt    
  400eda:	66 0f 1f 44 00 00    	nopw   0x0(%rax,%rax,1)

0000000000400ee0 <deregister_tm_clones>:
  400ee0:	b8 b7 54 60 00       	mov    $0x6054b7,%eax
  400ee5:	55                   	push   %rbp
  400ee6:	48 2d b0 54 60 00    	sub    $0x6054b0,%rax
  400eec:	48 83 f8 0e          	cmp    $0xe,%rax
  400ef0:	48 89 e5             	mov    %rsp,%rbp
  400ef3:	76 1b                	jbe    400f10 <deregister_tm_clones+0x30>
  400ef5:	b8 00 00 00 00       	mov    $0x0,%eax
  400efa:	48 85 c0             	test   %rax,%rax
  400efd:	74 11                	je     400f10 <deregister_tm_clones+0x30>
  400eff:	5d                   	pop    %rbp
  400f00:	bf b0 54 60 00       	mov    $0x6054b0,%edi
  400f05:	ff e0                	jmpq   *%rax
  400f07:	66 0f 1f 84 00 00 00 	nopw   0x0(%rax,%rax,1)
  400f0e:	00 00 
  400f10:	5d                   	pop    %rbp
  400f11:	c3                   	retq   
  400f12:	0f 1f 40 00          	nopl   0x0(%rax)
  400f16:	66 2e 0f 1f 84 00 00 	nopw   %cs:0x0(%rax,%rax,1)
  400f1d:	00 00 00 

0000000000400f20 <register_tm_clones>:
  400f20:	be b0 54 60 00       	mov    $0x6054b0,%esi
  400f25:	55                   	push   %rbp
  400f26:	48 81 ee b0 54 60 00 	sub    $0x6054b0,%rsi
  400f2d:	48 c1 fe 03          	sar    $0x3,%rsi
  400f31:	48 89 e5             	mov    %rsp,%rbp
  400f34:	48 89 f0             	mov    %rsi,%rax
  400f37:	48 c1 e8 3f          	shr    $0x3f,%rax
  400f3b:	48 01 c6             	add    %rax,%rsi
  400f3e:	48 d1 fe             	sar    %rsi
  400f41:	74 15                	je     400f58 <register_tm_clones+0x38>
  400f43:	b8 00 00 00 00       	mov    $0x0,%eax
  400f48:	48 85 c0             	test   %rax,%rax
  400f4b:	74 0b                	je     400f58 <register_tm_clones+0x38>
  400f4d:	5d                   	pop    %rbp
  400f4e:	bf b0 54 60 00       	mov    $0x6054b0,%edi
  400f53:	ff e0                	jmpq   *%rax
  400f55:	0f 1f 00             	nopl   (%rax)
  400f58:	5d                   	pop    %rbp
  400f59:	c3                   	retq   
  400f5a:	66 0f 1f 44 00 00    	nopw   0x0(%rax,%rax,1)

0000000000400f60 <__do_global_dtors_aux>:
  400f60:	80 3d 81 45 20 00 00 	cmpb   $0x0,0x204581(%rip)        # 6054e8 <completed.7594>
  400f67:	75 11                	jne    400f7a <__do_global_dtors_aux+0x1a>
  400f69:	55                   	push   %rbp
  400f6a:	48 89 e5             	mov    %rsp,%rbp
  400f6d:	e8 6e ff ff ff       	callq  400ee0 <deregister_tm_clones>
  400f72:	5d                   	pop    %rbp
  400f73:	c6 05 6e 45 20 00 01 	movb   $0x1,0x20456e(%rip)        # 6054e8 <completed.7594>
  400f7a:	f3 c3                	repz retq 
  400f7c:	0f 1f 40 00          	nopl   0x0(%rax)

0000000000400f80 <frame_dummy>:
  400f80:	bf 20 4e 60 00       	mov    $0x604e20,%edi
  400f85:	48 83 3f 00          	cmpq   $0x0,(%rdi)
  400f89:	75 05                	jne    400f90 <frame_dummy+0x10>
  400f8b:	eb 93                	jmp    400f20 <register_tm_clones>
  400f8d:	0f 1f 00             	nopl   (%rax)
  400f90:	b8 00 00 00 00       	mov    $0x0,%eax
  400f95:	48 85 c0             	test   %rax,%rax
  400f98:	74 f1                	je     400f8b <frame_dummy+0xb>
  400f9a:	55                   	push   %rbp
  400f9b:	48 89 e5             	mov    %rsp,%rbp
  400f9e:	ff d0                	callq  *%rax
  400fa0:	5d                   	pop    %rbp
  400fa1:	e9 7a ff ff ff       	jmpq   400f20 <register_tm_clones>

0000000000400fa6 <usage>:
  400fa6:	48 83 ec 08          	sub    $0x8,%rsp
  400faa:	48 89 fa             	mov    %rdi,%rdx
  400fad:	83 3d 74 45 20 00 00 	cmpl   $0x0,0x204574(%rip)        # 605528 <is_checker>
  400fb4:	74 3e                	je     400ff4 <usage+0x4e>
  400fb6:	be c8 2e 40 00       	mov    $0x402ec8,%esi
  400fbb:	bf 01 00 00 00       	mov    $0x1,%edi
  400fc0:	b8 00 00 00 00       	mov    $0x0,%eax
  400fc5:	e8 36 fe ff ff       	callq  400e00 <__printf_chk@plt>
  400fca:	bf 00 2f 40 00       	mov    $0x402f00,%edi
  400fcf:	e8 fc fc ff ff       	callq  400cd0 <puts@plt>
  400fd4:	bf 78 30 40 00       	mov    $0x403078,%edi
  400fd9:	e8 f2 fc ff ff       	callq  400cd0 <puts@plt>
  400fde:	bf 28 2f 40 00       	mov    $0x402f28,%edi
  400fe3:	e8 e8 fc ff ff       	callq  400cd0 <puts@plt>
  400fe8:	bf 92 30 40 00       	mov    $0x403092,%edi
  400fed:	e8 de fc ff ff       	callq  400cd0 <puts@plt>
  400ff2:	eb 32                	jmp    401026 <usage+0x80>
  400ff4:	be ae 30 40 00       	mov    $0x4030ae,%esi
  400ff9:	bf 01 00 00 00       	mov    $0x1,%edi
  400ffe:	b8 00 00 00 00       	mov    $0x0,%eax
  401003:	e8 f8 fd ff ff       	callq  400e00 <__printf_chk@plt>
  401008:	bf 50 2f 40 00       	mov    $0x402f50,%edi
  40100d:	e8 be fc ff ff       	callq  400cd0 <puts@plt>
  401012:	bf 78 2f 40 00       	mov    $0x402f78,%edi
  401017:	e8 b4 fc ff ff       	callq  400cd0 <puts@plt>
  40101c:	bf cc 30 40 00       	mov    $0x4030cc,%edi
  401021:	e8 aa fc ff ff       	callq  400cd0 <puts@plt>
  401026:	bf 00 00 00 00       	mov    $0x0,%edi
  40102b:	e8 20 fe ff ff       	callq  400e50 <exit@plt>

0000000000401030 <initialize_target>:
  401030:	55                   	push   %rbp
  401031:	53                   	push   %rbx
  401032:	48 81 ec 18 21 00 00 	sub    $0x2118,%rsp
  401039:	89 f5                	mov    %esi,%ebp
  40103b:	64 48 8b 04 25 28 00 	mov    %fs:0x28,%rax
  401042:	00 00 
  401044:	48 89 84 24 08 21 00 	mov    %rax,0x2108(%rsp)
  40104b:	00 
  40104c:	31 c0                	xor    %eax,%eax
  40104e:	89 3d c4 44 20 00    	mov    %edi,0x2044c4(%rip)        # 605518 <check_level>
  401054:	8b 3d 0e 41 20 00    	mov    0x20410e(%rip),%edi        # 605168 <target_id>
  40105a:	e8 b4 1d 00 00       	callq  402e13 <gencookie>
  40105f:	89 05 bf 44 20 00    	mov    %eax,0x2044bf(%rip)        # 605524 <cookie>
  401065:	89 c7                	mov    %eax,%edi
  401067:	e8 a7 1d 00 00       	callq  402e13 <gencookie>
  40106c:	89 05 ae 44 20 00    	mov    %eax,0x2044ae(%rip)        # 605520 <authkey>
  401072:	8b 05 f0 40 20 00    	mov    0x2040f0(%rip),%eax        # 605168 <target_id>
  401078:	8d 78 01             	lea    0x1(%rax),%edi
  40107b:	e8 20 fc ff ff       	callq  400ca0 <srandom@plt>
  401080:	e8 3b fd ff ff       	callq  400dc0 <random@plt>
  401085:	89 c7                	mov    %eax,%edi
  401087:	e8 03 03 00 00       	callq  40138f <scramble>
  40108c:	89 c3                	mov    %eax,%ebx
  40108e:	85 ed                	test   %ebp,%ebp
  401090:	74 18                	je     4010aa <initialize_target+0x7a>
  401092:	bf 00 00 00 00       	mov    $0x0,%edi
  401097:	e8 14 fd ff ff       	callq  400db0 <time@plt>
  40109c:	89 c7                	mov    %eax,%edi
  40109e:	e8 fd fb ff ff       	callq  400ca0 <srandom@plt>
  4010a3:	e8 18 fd ff ff       	callq  400dc0 <random@plt>
  4010a8:	eb 05                	jmp    4010af <initialize_target+0x7f>
  4010aa:	b8 00 00 00 00       	mov    $0x0,%eax
  4010af:	01 c3                	add    %eax,%ebx
  4010b1:	0f b7 db             	movzwl %bx,%ebx
  4010b4:	8d 04 dd 00 01 00 00 	lea    0x100(,%rbx,8),%eax
  4010bb:	89 c0                	mov    %eax,%eax
  4010bd:	48 89 05 dc 43 20 00 	mov    %rax,0x2043dc(%rip)        # 6054a0 <buf_offset>
  4010c4:	c6 05 7d 50 20 00 63 	movb   $0x63,0x20507d(%rip)        # 606148 <target_prefix>
  4010cb:	83 3d d6 43 20 00 00 	cmpl   $0x0,0x2043d6(%rip)        # 6054a8 <notify>
  4010d2:	0f 84 bb 00 00 00    	je     401193 <initialize_target+0x163>
  4010d8:	83 3d 49 44 20 00 00 	cmpl   $0x0,0x204449(%rip)        # 605528 <is_checker>
  4010df:	0f 85 ae 00 00 00    	jne    401193 <initialize_target+0x163>
  4010e5:	be 00 01 00 00       	mov    $0x100,%esi
  4010ea:	48 89 e7             	mov    %rsp,%rdi
  4010ed:	e8 4e fd ff ff       	callq  400e40 <gethostname@plt>
  4010f2:	85 c0                	test   %eax,%eax
  4010f4:	74 25                	je     40111b <initialize_target+0xeb>
  4010f6:	bf a8 2f 40 00       	mov    $0x402fa8,%edi
  4010fb:	e8 d0 fb ff ff       	callq  400cd0 <puts@plt>
  401100:	bf 08 00 00 00       	mov    $0x8,%edi
  401105:	e8 46 fd ff ff       	callq  400e50 <exit@plt>
  40110a:	48 89 e6             	mov    %rsp,%rsi
  40110d:	e8 6e fb ff ff       	callq  400c80 <strcasecmp@plt>
  401112:	85 c0                	test   %eax,%eax
  401114:	74 21                	je     401137 <initialize_target+0x107>
  401116:	83 c3 01             	add    $0x1,%ebx
  401119:	eb 05                	jmp    401120 <initialize_target+0xf0>
  40111b:	bb 00 00 00 00       	mov    $0x0,%ebx
  401120:	48 63 c3             	movslq %ebx,%rax
  401123:	48 8b 3c c5 80 51 60 	mov    0x605180(,%rax,8),%rdi
  40112a:	00 
  40112b:	48 85 ff             	test   %rdi,%rdi
  40112e:	75 da                	jne    40110a <initialize_target+0xda>
  401130:	b8 00 00 00 00       	mov    $0x0,%eax
  401135:	eb 05                	jmp    40113c <initialize_target+0x10c>
  401137:	b8 01 00 00 00       	mov    $0x1,%eax
  40113c:	85 c0                	test   %eax,%eax
  40113e:	75 1c                	jne    40115c <initialize_target+0x12c>
  401140:	48 89 e2             	mov    %rsp,%rdx
  401143:	be e0 2f 40 00       	mov    $0x402fe0,%esi
  401148:	bf 01 00 00 00       	mov    $0x1,%edi
  40114d:	e8 ae fc ff ff       	callq  400e00 <__printf_chk@plt>
  401152:	bf 08 00 00 00       	mov    $0x8,%edi
  401157:	e8 f4 fc ff ff       	callq  400e50 <exit@plt>
  40115c:	48 8d bc 24 00 01 00 	lea    0x100(%rsp),%rdi
  401163:	00 
  401164:	e8 14 1a 00 00       	callq  402b7d <init_driver>
  401169:	85 c0                	test   %eax,%eax
  40116b:	79 26                	jns    401193 <initialize_target+0x163>
  40116d:	48 8d 94 24 00 01 00 	lea    0x100(%rsp),%rdx
  401174:	00 
  401175:	be 20 30 40 00       	mov    $0x403020,%esi
  40117a:	bf 01 00 00 00       	mov    $0x1,%edi
  40117f:	b8 00 00 00 00       	mov    $0x0,%eax
  401184:	e8 77 fc ff ff       	callq  400e00 <__printf_chk@plt>
  401189:	bf 08 00 00 00       	mov    $0x8,%edi
  40118e:	e8 bd fc ff ff       	callq  400e50 <exit@plt>
  401193:	48 8b 84 24 08 21 00 	mov    0x2108(%rsp),%rax
  40119a:	00 
  40119b:	64 48 33 04 25 28 00 	xor    %fs:0x28,%rax
  4011a2:	00 00 
  4011a4:	74 05                	je     4011ab <initialize_target+0x17b>
  4011a6:	e8 45 fb ff ff       	callq  400cf0 <__stack_chk_fail@plt>
  4011ab:	48 81 c4 18 21 00 00 	add    $0x2118,%rsp
  4011b2:	5b                   	pop    %rbx
  4011b3:	5d                   	pop    %rbp
  4011b4:	c3                   	retq   

00000000004011b5 <main>:
  4011b5:	41 56                	push   %r14
  4011b7:	41 55                	push   %r13
  4011b9:	41 54                	push   %r12
  4011bb:	55                   	push   %rbp
  4011bc:	53                   	push   %rbx
  4011bd:	41 89 fc             	mov    %edi,%r12d
  4011c0:	48 89 f3             	mov    %rsi,%rbx
  4011c3:	be b8 1e 40 00       	mov    $0x401eb8,%esi
  4011c8:	bf 0b 00 00 00       	mov    $0xb,%edi
  4011cd:	e8 8e fb ff ff       	callq  400d60 <signal@plt>
  4011d2:	be 6a 1e 40 00       	mov    $0x401e6a,%esi
  4011d7:	bf 07 00 00 00       	mov    $0x7,%edi
  4011dc:	e8 7f fb ff ff       	callq  400d60 <signal@plt>
  4011e1:	be 06 1f 40 00       	mov    $0x401f06,%esi
  4011e6:	bf 04 00 00 00       	mov    $0x4,%edi
  4011eb:	e8 70 fb ff ff       	callq  400d60 <signal@plt>
  4011f0:	83 3d 31 43 20 00 00 	cmpl   $0x0,0x204331(%rip)        # 605528 <is_checker>
  4011f7:	74 20                	je     401219 <main+0x64>
  4011f9:	be 54 1f 40 00       	mov    $0x401f54,%esi
  4011fe:	bf 0e 00 00 00       	mov    $0xe,%edi
  401203:	e8 58 fb ff ff       	callq  400d60 <signal@plt>
  401208:	bf 05 00 00 00       	mov    $0x5,%edi
  40120d:	e8 0e fb ff ff       	callq  400d20 <alarm@plt>
  401212:	bd ea 30 40 00       	mov    $0x4030ea,%ebp
  401217:	eb 05                	jmp    40121e <main+0x69>
  401219:	bd e5 30 40 00       	mov    $0x4030e5,%ebp
  40121e:	48 8b 05 9b 42 20 00 	mov    0x20429b(%rip),%rax        # 6054c0 <stdin@@GLIBC_2.2.5>
  401225:	48 89 05 e4 42 20 00 	mov    %rax,0x2042e4(%rip)        # 605510 <infile>
  40122c:	41 bd 00 00 00 00    	mov    $0x0,%r13d
  401232:	41 be 00 00 00 00    	mov    $0x0,%r14d
  401238:	e9 c6 00 00 00       	jmpq   401303 <main+0x14e>
  40123d:	83 e8 61             	sub    $0x61,%eax
  401240:	3c 10                	cmp    $0x10,%al
  401242:	0f 87 9c 00 00 00    	ja     4012e4 <main+0x12f>
  401248:	0f b6 c0             	movzbl %al,%eax
  40124b:	ff 24 c5 30 31 40 00 	jmpq   *0x403130(,%rax,8)
  401252:	48 8b 3b             	mov    (%rbx),%rdi
  401255:	e8 4c fd ff ff       	callq  400fa6 <usage>
  40125a:	be cd 34 40 00       	mov    $0x4034cd,%esi
  40125f:	48 8b 3d 62 42 20 00 	mov    0x204262(%rip),%rdi        # 6054c8 <optarg@@GLIBC_2.2.5>
  401266:	e8 a5 fb ff ff       	callq  400e10 <fopen@plt>
  40126b:	48 89 05 9e 42 20 00 	mov    %rax,0x20429e(%rip)        # 605510 <infile>
  401272:	48 85 c0             	test   %rax,%rax
  401275:	0f 85 88 00 00 00    	jne    401303 <main+0x14e>
  40127b:	48 8b 0d 46 42 20 00 	mov    0x204246(%rip),%rcx        # 6054c8 <optarg@@GLIBC_2.2.5>
  401282:	ba f2 30 40 00       	mov    $0x4030f2,%edx
  401287:	be 01 00 00 00       	mov    $0x1,%esi
  40128c:	48 8b 3d 4d 42 20 00 	mov    0x20424d(%rip),%rdi        # 6054e0 <stderr@@GLIBC_2.2.5>
  401293:	e8 d8 fb ff ff       	callq  400e70 <__fprintf_chk@plt>
  401298:	b8 01 00 00 00       	mov    $0x1,%eax
  40129d:	e9 e4 00 00 00       	jmpq   401386 <main+0x1d1>
  4012a2:	ba 10 00 00 00       	mov    $0x10,%edx
  4012a7:	be 00 00 00 00       	mov    $0x0,%esi
  4012ac:	48 8b 3d 15 42 20 00 	mov    0x204215(%rip),%rdi        # 6054c8 <optarg@@GLIBC_2.2.5>
  4012b3:	e8 78 fb ff ff       	callq  400e30 <strtoul@plt>
  4012b8:	41 89 c6             	mov    %eax,%r14d
  4012bb:	eb 46                	jmp    401303 <main+0x14e>
  4012bd:	ba 0a 00 00 00       	mov    $0xa,%edx
  4012c2:	be 00 00 00 00       	mov    $0x0,%esi
  4012c7:	48 8b 3d fa 41 20 00 	mov    0x2041fa(%rip),%rdi        # 6054c8 <optarg@@GLIBC_2.2.5>
  4012ce:	e8 bd fa ff ff       	callq  400d90 <strtol@plt>
  4012d3:	41 89 c5             	mov    %eax,%r13d
  4012d6:	eb 2b                	jmp    401303 <main+0x14e>
  4012d8:	c7 05 c6 41 20 00 00 	movl   $0x0,0x2041c6(%rip)        # 6054a8 <notify>
  4012df:	00 00 00 
  4012e2:	eb 1f                	jmp    401303 <main+0x14e>
  4012e4:	0f be d2             	movsbl %dl,%edx
  4012e7:	be 0f 31 40 00       	mov    $0x40310f,%esi
  4012ec:	bf 01 00 00 00       	mov    $0x1,%edi
  4012f1:	b8 00 00 00 00       	mov    $0x0,%eax
  4012f6:	e8 05 fb ff ff       	callq  400e00 <__printf_chk@plt>
  4012fb:	48 8b 3b             	mov    (%rbx),%rdi
  4012fe:	e8 a3 fc ff ff       	callq  400fa6 <usage>
  401303:	48 89 ea             	mov    %rbp,%rdx
  401306:	48 89 de             	mov    %rbx,%rsi
  401309:	44 89 e7             	mov    %r12d,%edi
  40130c:	e8 0f fb ff ff       	callq  400e20 <getopt@plt>
  401311:	89 c2                	mov    %eax,%edx
  401313:	3c ff                	cmp    $0xff,%al
  401315:	0f 85 22 ff ff ff    	jne    40123d <main+0x88>
  40131b:	be 00 00 00 00       	mov    $0x0,%esi
  401320:	44 89 ef             	mov    %r13d,%edi
  401323:	e8 08 fd ff ff       	callq  401030 <initialize_target>
  401328:	83 3d f9 41 20 00 00 	cmpl   $0x0,0x2041f9(%rip)        # 605528 <is_checker>
  40132f:	74 2a                	je     40135b <main+0x1a6>
  401331:	44 3b 35 e8 41 20 00 	cmp    0x2041e8(%rip),%r14d        # 605520 <authkey>
  401338:	74 21                	je     40135b <main+0x1a6>
  40133a:	44 89 f2             	mov    %r14d,%edx
  40133d:	be 48 30 40 00       	mov    $0x403048,%esi
  401342:	bf 01 00 00 00       	mov    $0x1,%edi
  401347:	b8 00 00 00 00       	mov    $0x0,%eax
  40134c:	e8 af fa ff ff       	callq  400e00 <__printf_chk@plt>
  401351:	b8 00 00 00 00       	mov    $0x0,%eax
  401356:	e8 ab 07 00 00       	callq  401b06 <check_fail>
  40135b:	8b 15 c3 41 20 00    	mov    0x2041c3(%rip),%edx        # 605524 <cookie>
  401361:	be 22 31 40 00       	mov    $0x403122,%esi
  401366:	bf 01 00 00 00       	mov    $0x1,%edi
  40136b:	b8 00 00 00 00       	mov    $0x0,%eax
  401370:	e8 8b fa ff ff       	callq  400e00 <__printf_chk@plt>
  401375:	48 8b 3d 24 41 20 00 	mov    0x204124(%rip),%rdi        # 6054a0 <buf_offset>
  40137c:	e8 d3 0c 00 00       	callq  402054 <stable_launch>
  401381:	b8 00 00 00 00       	mov    $0x0,%eax
  401386:	5b                   	pop    %rbx
  401387:	5d                   	pop    %rbp
  401388:	41 5c                	pop    %r12
  40138a:	41 5d                	pop    %r13
  40138c:	41 5e                	pop    %r14
  40138e:	c3                   	retq   

000000000040138f <scramble>:
  40138f:	48 83 ec 38          	sub    $0x38,%rsp
  401393:	64 48 8b 04 25 28 00 	mov    %fs:0x28,%rax
  40139a:	00 00 
  40139c:	48 89 44 24 28       	mov    %rax,0x28(%rsp)
  4013a1:	31 c0                	xor    %eax,%eax
  4013a3:	eb 10                	jmp    4013b5 <scramble+0x26>
  4013a5:	69 d0 72 ac 00 00    	imul   $0xac72,%eax,%edx
  4013ab:	01 fa                	add    %edi,%edx
  4013ad:	89 c1                	mov    %eax,%ecx
  4013af:	89 14 8c             	mov    %edx,(%rsp,%rcx,4)
  4013b2:	83 c0 01             	add    $0x1,%eax
  4013b5:	83 f8 09             	cmp    $0x9,%eax
  4013b8:	76 eb                	jbe    4013a5 <scramble+0x16>
  4013ba:	8b 44 24 20          	mov    0x20(%rsp),%eax
  4013be:	69 c0 5b f7 00 00    	imul   $0xf75b,%eax,%eax
  4013c4:	89 44 24 20          	mov    %eax,0x20(%rsp)
  4013c8:	8b 04 24             	mov    (%rsp),%eax
  4013cb:	69 c0 74 39 00 00    	imul   $0x3974,%eax,%eax
  4013d1:	89 04 24             	mov    %eax,(%rsp)
  4013d4:	8b 44 24 0c          	mov    0xc(%rsp),%eax
  4013d8:	69 c0 ac 30 00 00    	imul   $0x30ac,%eax,%eax
  4013de:	89 44 24 0c          	mov    %eax,0xc(%rsp)
  4013e2:	8b 44 24 24          	mov    0x24(%rsp),%eax
  4013e6:	69 c0 6e 4e 00 00    	imul   $0x4e6e,%eax,%eax
  4013ec:	89 44 24 24          	mov    %eax,0x24(%rsp)
  4013f0:	8b 44 24 04          	mov    0x4(%rsp),%eax
  4013f4:	69 c0 34 2a 00 00    	imul   $0x2a34,%eax,%eax
  4013fa:	89 44 24 04          	mov    %eax,0x4(%rsp)
  4013fe:	8b 44 24 20          	mov    0x20(%rsp),%eax
  401402:	69 c0 be 6c 00 00    	imul   $0x6cbe,%eax,%eax
  401408:	89 44 24 20          	mov    %eax,0x20(%rsp)
  40140c:	8b 44 24 18          	mov    0x18(%rsp),%eax
  401410:	69 c0 60 e8 00 00    	imul   $0xe860,%eax,%eax
  401416:	89 44 24 18          	mov    %eax,0x18(%rsp)
  40141a:	8b 44 24 14          	mov    0x14(%rsp),%eax
  40141e:	69 c0 6a 62 00 00    	imul   $0x626a,%eax,%eax
  401424:	89 44 24 14          	mov    %eax,0x14(%rsp)
  401428:	8b 04 24             	mov    (%rsp),%eax
  40142b:	69 c0 98 75 00 00    	imul   $0x7598,%eax,%eax
  401431:	89 04 24             	mov    %eax,(%rsp)
  401434:	8b 44 24 20          	mov    0x20(%rsp),%eax
  401438:	69 c0 68 2a 00 00    	imul   $0x2a68,%eax,%eax
  40143e:	89 44 24 20          	mov    %eax,0x20(%rsp)
  401442:	8b 44 24 0c          	mov    0xc(%rsp),%eax
  401446:	69 c0 ee ba 00 00    	imul   $0xbaee,%eax,%eax
  40144c:	89 44 24 0c          	mov    %eax,0xc(%rsp)
  401450:	8b 44 24 10          	mov    0x10(%rsp),%eax
  401454:	69 c0 a8 66 00 00    	imul   $0x66a8,%eax,%eax
  40145a:	89 44 24 10          	mov    %eax,0x10(%rsp)
  40145e:	8b 44 24 04          	mov    0x4(%rsp),%eax
  401462:	69 c0 b5 a4 00 00    	imul   $0xa4b5,%eax,%eax
  401468:	89 44 24 04          	mov    %eax,0x4(%rsp)
  40146c:	8b 44 24 20          	mov    0x20(%rsp),%eax
  401470:	69 c0 c9 95 00 00    	imul   $0x95c9,%eax,%eax
  401476:	89 44 24 20          	mov    %eax,0x20(%rsp)
  40147a:	8b 44 24 20          	mov    0x20(%rsp),%eax
  40147e:	69 c0 7b 49 00 00    	imul   $0x497b,%eax,%eax
  401484:	89 44 24 20          	mov    %eax,0x20(%rsp)
  401488:	8b 44 24 1c          	mov    0x1c(%rsp),%eax
  40148c:	69 c0 94 22 00 00    	imul   $0x2294,%eax,%eax
  401492:	89 44 24 1c          	mov    %eax,0x1c(%rsp)
  401496:	8b 44 24 08          	mov    0x8(%rsp),%eax
  40149a:	69 c0 bc 56 00 00    	imul   $0x56bc,%eax,%eax
  4014a0:	89 44 24 08          	mov    %eax,0x8(%rsp)
  4014a4:	8b 44 24 18          	mov    0x18(%rsp),%eax
  4014a8:	69 c0 05 17 00 00    	imul   $0x1705,%eax,%eax
  4014ae:	89 44 24 18          	mov    %eax,0x18(%rsp)
  4014b2:	8b 44 24 14          	mov    0x14(%rsp),%eax
  4014b6:	69 c0 5d b2 00 00    	imul   $0xb25d,%eax,%eax
  4014bc:	89 44 24 14          	mov    %eax,0x14(%rsp)
  4014c0:	8b 44 24 24          	mov    0x24(%rsp),%eax
  4014c4:	69 c0 c2 b0 00 00    	imul   $0xb0c2,%eax,%eax
  4014ca:	89 44 24 24          	mov    %eax,0x24(%rsp)
  4014ce:	8b 44 24 08          	mov    0x8(%rsp),%eax
  4014d2:	69 c0 de c4 00 00    	imul   $0xc4de,%eax,%eax
  4014d8:	89 44 24 08          	mov    %eax,0x8(%rsp)
  4014dc:	8b 44 24 0c          	mov    0xc(%rsp),%eax
  4014e0:	69 c0 b1 92 00 00    	imul   $0x92b1,%eax,%eax
  4014e6:	89 44 24 0c          	mov    %eax,0xc(%rsp)
  4014ea:	8b 44 24 24          	mov    0x24(%rsp),%eax
  4014ee:	69 c0 5c d9 00 00    	imul   $0xd95c,%eax,%eax
  4014f4:	89 44 24 24          	mov    %eax,0x24(%rsp)
  4014f8:	8b 44 24 04          	mov    0x4(%rsp),%eax
  4014fc:	69 c0 86 08 00 00    	imul   $0x886,%eax,%eax
  401502:	89 44 24 04          	mov    %eax,0x4(%rsp)
  401506:	8b 44 24 18          	mov    0x18(%rsp),%eax
  40150a:	69 c0 50 a5 00 00    	imul   $0xa550,%eax,%eax
  401510:	89 44 24 18          	mov    %eax,0x18(%rsp)
  401514:	8b 44 24 10          	mov    0x10(%rsp),%eax
  401518:	69 c0 21 f4 00 00    	imul   $0xf421,%eax,%eax
  40151e:	89 44 24 10          	mov    %eax,0x10(%rsp)
  401522:	8b 44 24 04          	mov    0x4(%rsp),%eax
  401526:	69 c0 f5 9a 00 00    	imul   $0x9af5,%eax,%eax
  40152c:	89 44 24 04          	mov    %eax,0x4(%rsp)
  401530:	8b 44 24 0c          	mov    0xc(%rsp),%eax
  401534:	69 c0 99 a5 00 00    	imul   $0xa599,%eax,%eax
  40153a:	89 44 24 0c          	mov    %eax,0xc(%rsp)
  40153e:	8b 44 24 08          	mov    0x8(%rsp),%eax
  401542:	69 c0 4c 66 00 00    	imul   $0x664c,%eax,%eax
  401548:	89 44 24 08          	mov    %eax,0x8(%rsp)
  40154c:	8b 44 24 14          	mov    0x14(%rsp),%eax
  401550:	69 c0 cd b5 00 00    	imul   $0xb5cd,%eax,%eax
  401556:	89 44 24 14          	mov    %eax,0x14(%rsp)
  40155a:	8b 44 24 24          	mov    0x24(%rsp),%eax
  40155e:	69 c0 ce 82 00 00    	imul   $0x82ce,%eax,%eax
  401564:	89 44 24 24          	mov    %eax,0x24(%rsp)
  401568:	8b 44 24 20          	mov    0x20(%rsp),%eax
  40156c:	69 c0 9e f0 00 00    	imul   $0xf09e,%eax,%eax
  401572:	89 44 24 20          	mov    %eax,0x20(%rsp)
  401576:	8b 44 24 0c          	mov    0xc(%rsp),%eax
  40157a:	69 c0 69 34 00 00    	imul   $0x3469,%eax,%eax
  401580:	89 44 24 0c          	mov    %eax,0xc(%rsp)
  401584:	8b 44 24 18          	mov    0x18(%rsp),%eax
  401588:	69 c0 f2 60 00 00    	imul   $0x60f2,%eax,%eax
  40158e:	89 44 24 18          	mov    %eax,0x18(%rsp)
  401592:	8b 44 24 10          	mov    0x10(%rsp),%eax
  401596:	69 c0 16 6d 00 00    	imul   $0x6d16,%eax,%eax
  40159c:	89 44 24 10          	mov    %eax,0x10(%rsp)
  4015a0:	8b 44 24 24          	mov    0x24(%rsp),%eax
  4015a4:	69 c0 57 c3 00 00    	imul   $0xc357,%eax,%eax
  4015aa:	89 44 24 24          	mov    %eax,0x24(%rsp)
  4015ae:	8b 44 24 18          	mov    0x18(%rsp),%eax
  4015b2:	69 c0 35 2f 00 00    	imul   $0x2f35,%eax,%eax
  4015b8:	89 44 24 18          	mov    %eax,0x18(%rsp)
  4015bc:	8b 44 24 24          	mov    0x24(%rsp),%eax
  4015c0:	69 c0 34 df 00 00    	imul   $0xdf34,%eax,%eax
  4015c6:	89 44 24 24          	mov    %eax,0x24(%rsp)
  4015ca:	8b 44 24 08          	mov    0x8(%rsp),%eax
  4015ce:	69 c0 23 4b 00 00    	imul   $0x4b23,%eax,%eax
  4015d4:	89 44 24 08          	mov    %eax,0x8(%rsp)
  4015d8:	8b 44 24 1c          	mov    0x1c(%rsp),%eax
  4015dc:	69 c0 86 57 00 00    	imul   $0x5786,%eax,%eax
  4015e2:	89 44 24 1c          	mov    %eax,0x1c(%rsp)
  4015e6:	8b 44 24 04          	mov    0x4(%rsp),%eax
  4015ea:	69 c0 a9 1a 00 00    	imul   $0x1aa9,%eax,%eax
  4015f0:	89 44 24 04          	mov    %eax,0x4(%rsp)
  4015f4:	8b 04 24             	mov    (%rsp),%eax
  4015f7:	69 c0 b2 50 00 00    	imul   $0x50b2,%eax,%eax
  4015fd:	89 04 24             	mov    %eax,(%rsp)
  401600:	8b 44 24 14          	mov    0x14(%rsp),%eax
  401604:	69 c0 70 a6 00 00    	imul   $0xa670,%eax,%eax
  40160a:	89 44 24 14          	mov    %eax,0x14(%rsp)
  40160e:	8b 44 24 18          	mov    0x18(%rsp),%eax
  401612:	69 c0 49 f5 00 00    	imul   $0xf549,%eax,%eax
  401618:	89 44 24 18          	mov    %eax,0x18(%rsp)
  40161c:	8b 44 24 20          	mov    0x20(%rsp),%eax
  401620:	69 c0 ad 31 00 00    	imul   $0x31ad,%eax,%eax
  401626:	89 44 24 20          	mov    %eax,0x20(%rsp)
  40162a:	8b 44 24 24          	mov    0x24(%rsp),%eax
  40162e:	69 c0 84 bc 00 00    	imul   $0xbc84,%eax,%eax
  401634:	89 44 24 24          	mov    %eax,0x24(%rsp)
  401638:	8b 44 24 18          	mov    0x18(%rsp),%eax
  40163c:	69 c0 77 83 00 00    	imul   $0x8377,%eax,%eax
  401642:	89 44 24 18          	mov    %eax,0x18(%rsp)
  401646:	8b 04 24             	mov    (%rsp),%eax
  401649:	69 c0 05 8e 00 00    	imul   $0x8e05,%eax,%eax
  40164f:	89 04 24             	mov    %eax,(%rsp)
  401652:	8b 44 24 14          	mov    0x14(%rsp),%eax
  401656:	69 c0 c6 b4 00 00    	imul   $0xb4c6,%eax,%eax
  40165c:	89 44 24 14          	mov    %eax,0x14(%rsp)
  401660:	8b 44 24 08          	mov    0x8(%rsp),%eax
  401664:	69 c0 a6 9e 00 00    	imul   $0x9ea6,%eax,%eax
  40166a:	89 44 24 08          	mov    %eax,0x8(%rsp)
  40166e:	8b 44 24 14          	mov    0x14(%rsp),%eax
  401672:	69 c0 ac 00 00 00    	imul   $0xac,%eax,%eax
  401678:	89 44 24 14          	mov    %eax,0x14(%rsp)
  40167c:	8b 44 24 24          	mov    0x24(%rsp),%eax
  401680:	69 c0 d1 53 00 00    	imul   $0x53d1,%eax,%eax
  401686:	89 44 24 24          	mov    %eax,0x24(%rsp)
  40168a:	8b 44 24 14          	mov    0x14(%rsp),%eax
  40168e:	69 c0 05 b8 00 00    	imul   $0xb805,%eax,%eax
  401694:	89 44 24 14          	mov    %eax,0x14(%rsp)
  401698:	8b 44 24 24          	mov    0x24(%rsp),%eax
  40169c:	69 c0 72 38 00 00    	imul   $0x3872,%eax,%eax
  4016a2:	89 44 24 24          	mov    %eax,0x24(%rsp)
  4016a6:	8b 44 24 04          	mov    0x4(%rsp),%eax
  4016aa:	69 c0 c0 1a 00 00    	imul   $0x1ac0,%eax,%eax
  4016b0:	89 44 24 04          	mov    %eax,0x4(%rsp)
  4016b4:	8b 44 24 1c          	mov    0x1c(%rsp),%eax
  4016b8:	69 c0 9c f3 00 00    	imul   $0xf39c,%eax,%eax
  4016be:	89 44 24 1c          	mov    %eax,0x1c(%rsp)
  4016c2:	8b 44 24 08          	mov    0x8(%rsp),%eax
  4016c6:	69 c0 a0 db 00 00    	imul   $0xdba0,%eax,%eax
  4016cc:	89 44 24 08          	mov    %eax,0x8(%rsp)
  4016d0:	8b 44 24 1c          	mov    0x1c(%rsp),%eax
  4016d4:	69 c0 07 eb 00 00    	imul   $0xeb07,%eax,%eax
  4016da:	89 44 24 1c          	mov    %eax,0x1c(%rsp)
  4016de:	8b 44 24 0c          	mov    0xc(%rsp),%eax
  4016e2:	69 c0 99 3a 00 00    	imul   $0x3a99,%eax,%eax
  4016e8:	89 44 24 0c          	mov    %eax,0xc(%rsp)
  4016ec:	8b 44 24 18          	mov    0x18(%rsp),%eax
  4016f0:	69 c0 cd 8e 00 00    	imul   $0x8ecd,%eax,%eax
  4016f6:	89 44 24 18          	mov    %eax,0x18(%rsp)
  4016fa:	8b 44 24 1c          	mov    0x1c(%rsp),%eax
  4016fe:	69 c0 67 8b 00 00    	imul   $0x8b67,%eax,%eax
  401704:	89 44 24 1c          	mov    %eax,0x1c(%rsp)
  401708:	8b 44 24 04          	mov    0x4(%rsp),%eax
  40170c:	69 c0 c1 20 00 00    	imul   $0x20c1,%eax,%eax
  401712:	89 44 24 04          	mov    %eax,0x4(%rsp)
  401716:	8b 44 24 10          	mov    0x10(%rsp),%eax
  40171a:	69 c0 74 f8 00 00    	imul   $0xf874,%eax,%eax
  401720:	89 44 24 10          	mov    %eax,0x10(%rsp)
  401724:	8b 04 24             	mov    (%rsp),%eax
  401727:	69 c0 bf c6 00 00    	imul   $0xc6bf,%eax,%eax
  40172d:	89 04 24             	mov    %eax,(%rsp)
  401730:	8b 44 24 10          	mov    0x10(%rsp),%eax
  401734:	69 c0 be 9d 00 00    	imul   $0x9dbe,%eax,%eax
  40173a:	89 44 24 10          	mov    %eax,0x10(%rsp)
  40173e:	8b 44 24 08          	mov    0x8(%rsp),%eax
  401742:	69 c0 16 cf 00 00    	imul   $0xcf16,%eax,%eax
  401748:	89 44 24 08          	mov    %eax,0x8(%rsp)
  40174c:	8b 44 24 18          	mov    0x18(%rsp),%eax
  401750:	69 c0 63 c7 00 00    	imul   $0xc763,%eax,%eax
  401756:	89 44 24 18          	mov    %eax,0x18(%rsp)
  40175a:	8b 44 24 14          	mov    0x14(%rsp),%eax
  40175e:	69 c0 4b ce 00 00    	imul   $0xce4b,%eax,%eax
  401764:	89 44 24 14          	mov    %eax,0x14(%rsp)
  401768:	8b 44 24 0c          	mov    0xc(%rsp),%eax
  40176c:	69 c0 ed 55 00 00    	imul   $0x55ed,%eax,%eax
  401772:	89 44 24 0c          	mov    %eax,0xc(%rsp)
  401776:	8b 44 24 04          	mov    0x4(%rsp),%eax
  40177a:	69 c0 92 82 00 00    	imul   $0x8292,%eax,%eax
  401780:	89 44 24 04          	mov    %eax,0x4(%rsp)
  401784:	8b 44 24 08          	mov    0x8(%rsp),%eax
  401788:	69 c0 b6 96 00 00    	imul   $0x96b6,%eax,%eax
  40178e:	89 44 24 08          	mov    %eax,0x8(%rsp)
  401792:	8b 44 24 24          	mov    0x24(%rsp),%eax
  401796:	69 c0 16 a6 00 00    	imul   $0xa616,%eax,%eax
  40179c:	89 44 24 24          	mov    %eax,0x24(%rsp)
  4017a0:	8b 04 24             	mov    (%rsp),%eax
  4017a3:	69 c0 7d ba 00 00    	imul   $0xba7d,%eax,%eax
  4017a9:	89 04 24             	mov    %eax,(%rsp)
  4017ac:	8b 44 24 10          	mov    0x10(%rsp),%eax
  4017b0:	69 c0 68 f4 00 00    	imul   $0xf468,%eax,%eax
  4017b6:	89 44 24 10          	mov    %eax,0x10(%rsp)
  4017ba:	8b 44 24 0c          	mov    0xc(%rsp),%eax
  4017be:	69 c0 6f 71 00 00    	imul   $0x716f,%eax,%eax
  4017c4:	89 44 24 0c          	mov    %eax,0xc(%rsp)
  4017c8:	8b 44 24 18          	mov    0x18(%rsp),%eax
  4017cc:	69 c0 5d 61 00 00    	imul   $0x615d,%eax,%eax
  4017d2:	89 44 24 18          	mov    %eax,0x18(%rsp)
  4017d6:	8b 44 24 20          	mov    0x20(%rsp),%eax
  4017da:	69 c0 87 ce 00 00    	imul   $0xce87,%eax,%eax
  4017e0:	89 44 24 20          	mov    %eax,0x20(%rsp)
  4017e4:	8b 44 24 24          	mov    0x24(%rsp),%eax
  4017e8:	69 c0 b5 0b 00 00    	imul   $0xbb5,%eax,%eax
  4017ee:	89 44 24 24          	mov    %eax,0x24(%rsp)
  4017f2:	8b 44 24 14          	mov    0x14(%rsp),%eax
  4017f6:	69 c0 e5 30 00 00    	imul   $0x30e5,%eax,%eax
  4017fc:	89 44 24 14          	mov    %eax,0x14(%rsp)
  401800:	8b 44 24 1c          	mov    0x1c(%rsp),%eax
  401804:	69 c0 35 74 00 00    	imul   $0x7435,%eax,%eax
  40180a:	89 44 24 1c          	mov    %eax,0x1c(%rsp)
  40180e:	8b 44 24 14          	mov    0x14(%rsp),%eax
  401812:	69 c0 db 37 00 00    	imul   $0x37db,%eax,%eax
  401818:	89 44 24 14          	mov    %eax,0x14(%rsp)
  40181c:	8b 04 24             	mov    (%rsp),%eax
  40181f:	69 c0 0d 6d 00 00    	imul   $0x6d0d,%eax,%eax
  401825:	89 04 24             	mov    %eax,(%rsp)
  401828:	8b 44 24 10          	mov    0x10(%rsp),%eax
  40182c:	69 c0 33 66 00 00    	imul   $0x6633,%eax,%eax
  401832:	89 44 24 10          	mov    %eax,0x10(%rsp)
  401836:	8b 44 24 1c          	mov    0x1c(%rsp),%eax
  40183a:	69 c0 a7 7e 00 00    	imul   $0x7ea7,%eax,%eax
  401840:	89 44 24 1c          	mov    %eax,0x1c(%rsp)
  401844:	8b 44 24 04          	mov    0x4(%rsp),%eax
  401848:	69 c0 15 42 00 00    	imul   $0x4215,%eax,%eax
  40184e:	89 44 24 04          	mov    %eax,0x4(%rsp)
  401852:	8b 44 24 10          	mov    0x10(%rsp),%eax
  401856:	69 c0 ce 2c 00 00    	imul   $0x2cce,%eax,%eax
  40185c:	89 44 24 10          	mov    %eax,0x10(%rsp)
  401860:	8b 44 24 24          	mov    0x24(%rsp),%eax
  401864:	69 c0 68 77 00 00    	imul   $0x7768,%eax,%eax
  40186a:	89 44 24 24          	mov    %eax,0x24(%rsp)
  40186e:	8b 44 24 0c          	mov    0xc(%rsp),%eax
  401872:	69 c0 23 4b 00 00    	imul   $0x4b23,%eax,%eax
  401878:	89 44 24 0c          	mov    %eax,0xc(%rsp)
  40187c:	ba 00 00 00 00       	mov    $0x0,%edx
  401881:	b8 00 00 00 00       	mov    $0x0,%eax
  401886:	eb 0a                	jmp    401892 <scramble+0x503>
  401888:	89 d1                	mov    %edx,%ecx
  40188a:	8b 0c 8c             	mov    (%rsp,%rcx,4),%ecx
  40188d:	01 c8                	add    %ecx,%eax
  40188f:	83 c2 01             	add    $0x1,%edx
  401892:	83 fa 09             	cmp    $0x9,%edx
  401895:	76 f1                	jbe    401888 <scramble+0x4f9>
  401897:	48 8b 74 24 28       	mov    0x28(%rsp),%rsi
  40189c:	64 48 33 34 25 28 00 	xor    %fs:0x28,%rsi
  4018a3:	00 00 
  4018a5:	74 05                	je     4018ac <scramble+0x51d>
  4018a7:	e8 44 f4 ff ff       	callq  400cf0 <__stack_chk_fail@plt>
  4018ac:	48 83 c4 38          	add    $0x38,%rsp
  4018b0:	c3                   	retq   

00000000004018b1 <getbuf>:
  4018b1:	48 83 ec 28          	sub    $0x28,%rsp
  4018b5:	48 89 e7             	mov    %rsp,%rdi
  4018b8:	e8 7e 02 00 00       	callq  401b3b <Gets>
  4018bd:	b8 01 00 00 00       	mov    $0x1,%eax
  4018c2:	48 83 c4 28          	add    $0x28,%rsp
  4018c6:	c3                   	retq   

00000000004018c7 <touch1>:
  4018c7:	48 83 ec 08          	sub    $0x8,%rsp
  4018cb:	c7 05 47 3c 20 00 01 	movl   $0x1,0x203c47(%rip)        # 60551c <vlevel>
  4018d2:	00 00 00 
  4018d5:	bf 23 33 40 00       	mov    $0x403323,%edi
  4018da:	e8 f1 f3 ff ff       	callq  400cd0 <puts@plt>
  4018df:	bf 01 00 00 00       	mov    $0x1,%edi
  4018e4:	e8 97 04 00 00       	callq  401d80 <validate>
  4018e9:	bf 00 00 00 00       	mov    $0x0,%edi
  4018ee:	e8 5d f5 ff ff       	callq  400e50 <exit@plt>

00000000004018f3 <touch2>:
  4018f3:	48 83 ec 08          	sub    $0x8,%rsp
  4018f7:	89 fa                	mov    %edi,%edx
  4018f9:	c7 05 19 3c 20 00 02 	movl   $0x2,0x203c19(%rip)        # 60551c <vlevel>
  401900:	00 00 00 
  401903:	39 3d 1b 3c 20 00    	cmp    %edi,0x203c1b(%rip)        # 605524 <cookie>
  401909:	75 20                	jne    40192b <touch2+0x38>
  40190b:	be 48 33 40 00       	mov    $0x403348,%esi
  401910:	bf 01 00 00 00       	mov    $0x1,%edi
  401915:	b8 00 00 00 00       	mov    $0x0,%eax
  40191a:	e8 e1 f4 ff ff       	callq  400e00 <__printf_chk@plt>
  40191f:	bf 02 00 00 00       	mov    $0x2,%edi
  401924:	e8 57 04 00 00       	callq  401d80 <validate>
  401929:	eb 1e                	jmp    401949 <touch2+0x56>
  40192b:	be 70 33 40 00       	mov    $0x403370,%esi
  401930:	bf 01 00 00 00       	mov    $0x1,%edi
  401935:	b8 00 00 00 00       	mov    $0x0,%eax
  40193a:	e8 c1 f4 ff ff       	callq  400e00 <__printf_chk@plt>
  40193f:	bf 02 00 00 00       	mov    $0x2,%edi
  401944:	e8 f9 04 00 00       	callq  401e42 <fail>
  401949:	bf 00 00 00 00       	mov    $0x0,%edi
  40194e:	e8 fd f4 ff ff       	callq  400e50 <exit@plt>

0000000000401953 <hexmatch>:
  401953:	41 54                	push   %r12
  401955:	55                   	push   %rbp
  401956:	53                   	push   %rbx
  401957:	48 83 c4 80          	add    $0xffffffffffffff80,%rsp
  40195b:	89 fd                	mov    %edi,%ebp
  40195d:	48 89 f3             	mov    %rsi,%rbx
  401960:	64 48 8b 04 25 28 00 	mov    %fs:0x28,%rax
  401967:	00 00 
  401969:	48 89 44 24 78       	mov    %rax,0x78(%rsp)
  40196e:	31 c0                	xor    %eax,%eax
  401970:	e8 4b f4 ff ff       	callq  400dc0 <random@plt>
  401975:	48 89 c1             	mov    %rax,%rcx
  401978:	48 ba 0b d7 a3 70 3d 	movabs $0xa3d70a3d70a3d70b,%rdx
  40197f:	0a d7 a3 
  401982:	48 f7 ea             	imul   %rdx
  401985:	48 01 ca             	add    %rcx,%rdx
  401988:	48 c1 fa 06          	sar    $0x6,%rdx
  40198c:	48 89 c8             	mov    %rcx,%rax
  40198f:	48 c1 f8 3f          	sar    $0x3f,%rax
  401993:	48 29 c2             	sub    %rax,%rdx
  401996:	48 8d 04 92          	lea    (%rdx,%rdx,4),%rax
  40199a:	48 8d 14 80          	lea    (%rax,%rax,4),%rdx
  40199e:	48 8d 04 95 00 00 00 	lea    0x0(,%rdx,4),%rax
  4019a5:	00 
  4019a6:	48 29 c1             	sub    %rax,%rcx
  4019a9:	4c 8d 24 0c          	lea    (%rsp,%rcx,1),%r12
  4019ad:	41 89 e8             	mov    %ebp,%r8d
  4019b0:	b9 40 33 40 00       	mov    $0x403340,%ecx
  4019b5:	48 c7 c2 ff ff ff ff 	mov    $0xffffffffffffffff,%rdx
  4019bc:	be 01 00 00 00       	mov    $0x1,%esi
  4019c1:	4c 89 e7             	mov    %r12,%rdi
  4019c4:	b8 00 00 00 00       	mov    $0x0,%eax
  4019c9:	e8 b2 f4 ff ff       	callq  400e80 <__sprintf_chk@plt>
  4019ce:	ba 09 00 00 00       	mov    $0x9,%edx
  4019d3:	4c 89 e6             	mov    %r12,%rsi
  4019d6:	48 89 df             	mov    %rbx,%rdi
  4019d9:	e8 d2 f2 ff ff       	callq  400cb0 <strncmp@plt>
  4019de:	85 c0                	test   %eax,%eax
  4019e0:	0f 94 c0             	sete   %al
  4019e3:	48 8b 5c 24 78       	mov    0x78(%rsp),%rbx
  4019e8:	64 48 33 1c 25 28 00 	xor    %fs:0x28,%rbx
  4019ef:	00 00 
  4019f1:	74 05                	je     4019f8 <hexmatch+0xa5>
  4019f3:	e8 f8 f2 ff ff       	callq  400cf0 <__stack_chk_fail@plt>
  4019f8:	0f b6 c0             	movzbl %al,%eax
  4019fb:	48 83 ec 80          	sub    $0xffffffffffffff80,%rsp
  4019ff:	5b                   	pop    %rbx
  401a00:	5d                   	pop    %rbp
  401a01:	41 5c                	pop    %r12
  401a03:	c3                   	retq   

0000000000401a04 <touch3>:
  401a04:	53                   	push   %rbx
  401a05:	48 89 fb             	mov    %rdi,%rbx
  401a08:	c7 05 0a 3b 20 00 03 	movl   $0x3,0x203b0a(%rip)        # 60551c <vlevel>
  401a0f:	00 00 00 
  401a12:	48 89 fe             	mov    %rdi,%rsi
  401a15:	8b 3d 09 3b 20 00    	mov    0x203b09(%rip),%edi        # 605524 <cookie>
  401a1b:	e8 33 ff ff ff       	callq  401953 <hexmatch>
  401a20:	85 c0                	test   %eax,%eax
  401a22:	74 23                	je     401a47 <touch3+0x43>
  401a24:	48 89 da             	mov    %rbx,%rdx
  401a27:	be 98 33 40 00       	mov    $0x403398,%esi
  401a2c:	bf 01 00 00 00       	mov    $0x1,%edi
  401a31:	b8 00 00 00 00       	mov    $0x0,%eax
  401a36:	e8 c5 f3 ff ff       	callq  400e00 <__printf_chk@plt>
  401a3b:	bf 03 00 00 00       	mov    $0x3,%edi
  401a40:	e8 3b 03 00 00       	callq  401d80 <validate>
  401a45:	eb 21                	jmp    401a68 <touch3+0x64>
  401a47:	48 89 da             	mov    %rbx,%rdx
  401a4a:	be c0 33 40 00       	mov    $0x4033c0,%esi
  401a4f:	bf 01 00 00 00       	mov    $0x1,%edi
  401a54:	b8 00 00 00 00       	mov    $0x0,%eax
  401a59:	e8 a2 f3 ff ff       	callq  400e00 <__printf_chk@plt>
  401a5e:	bf 03 00 00 00       	mov    $0x3,%edi
  401a63:	e8 da 03 00 00       	callq  401e42 <fail>
  401a68:	bf 00 00 00 00       	mov    $0x0,%edi
  401a6d:	e8 de f3 ff ff       	callq  400e50 <exit@plt>

0000000000401a72 <test>:
  401a72:	48 83 ec 08          	sub    $0x8,%rsp
  401a76:	b8 00 00 00 00       	mov    $0x0,%eax
  401a7b:	e8 31 fe ff ff       	callq  4018b1 <getbuf>
  401a80:	89 c2                	mov    %eax,%edx
  401a82:	be e8 33 40 00       	mov    $0x4033e8,%esi
  401a87:	bf 01 00 00 00       	mov    $0x1,%edi
  401a8c:	b8 00 00 00 00       	mov    $0x0,%eax
  401a91:	e8 6a f3 ff ff       	callq  400e00 <__printf_chk@plt>
  401a96:	48 83 c4 08          	add    $0x8,%rsp
  401a9a:	c3                   	retq   

0000000000401a9b <save_char>:
  401a9b:	8b 05 a3 46 20 00    	mov    0x2046a3(%rip),%eax        # 606144 <gets_cnt>
  401aa1:	3d ff 03 00 00       	cmp    $0x3ff,%eax
  401aa6:	7f 49                	jg     401af1 <save_char+0x56>
  401aa8:	8d 14 40             	lea    (%rax,%rax,2),%edx
  401aab:	89 f9                	mov    %edi,%ecx
  401aad:	c0 e9 04             	shr    $0x4,%cl
  401ab0:	83 e1 0f             	and    $0xf,%ecx
  401ab3:	0f b6 b1 10 37 40 00 	movzbl 0x403710(%rcx),%esi
  401aba:	48 63 ca             	movslq %edx,%rcx
  401abd:	40 88 b1 40 55 60 00 	mov    %sil,0x605540(%rcx)
  401ac4:	8d 4a 01             	lea    0x1(%rdx),%ecx
  401ac7:	83 e7 0f             	and    $0xf,%edi
  401aca:	0f b6 b7 10 37 40 00 	movzbl 0x403710(%rdi),%esi
  401ad1:	48 63 c9             	movslq %ecx,%rcx
  401ad4:	40 88 b1 40 55 60 00 	mov    %sil,0x605540(%rcx)
  401adb:	83 c2 02             	add    $0x2,%edx
  401ade:	48 63 d2             	movslq %edx,%rdx
  401ae1:	c6 82 40 55 60 00 20 	movb   $0x20,0x605540(%rdx)
  401ae8:	83 c0 01             	add    $0x1,%eax
  401aeb:	89 05 53 46 20 00    	mov    %eax,0x204653(%rip)        # 606144 <gets_cnt>
  401af1:	f3 c3                	repz retq 

0000000000401af3 <save_term>:
  401af3:	8b 05 4b 46 20 00    	mov    0x20464b(%rip),%eax        # 606144 <gets_cnt>
  401af9:	8d 04 40             	lea    (%rax,%rax,2),%eax
  401afc:	48 98                	cltq   
  401afe:	c6 80 40 55 60 00 00 	movb   $0x0,0x605540(%rax)
  401b05:	c3                   	retq   

0000000000401b06 <check_fail>:
  401b06:	48 83 ec 08          	sub    $0x8,%rsp
  401b0a:	0f be 15 37 46 20 00 	movsbl 0x204637(%rip),%edx        # 606148 <target_prefix>
  401b11:	41 b8 40 55 60 00    	mov    $0x605540,%r8d
  401b17:	8b 0d fb 39 20 00    	mov    0x2039fb(%rip),%ecx        # 605518 <check_level>
  401b1d:	be 0b 34 40 00       	mov    $0x40340b,%esi
  401b22:	bf 01 00 00 00       	mov    $0x1,%edi
  401b27:	b8 00 00 00 00       	mov    $0x0,%eax
  401b2c:	e8 cf f2 ff ff       	callq  400e00 <__printf_chk@plt>
  401b31:	bf 01 00 00 00       	mov    $0x1,%edi
  401b36:	e8 15 f3 ff ff       	callq  400e50 <exit@plt>

0000000000401b3b <Gets>:
  401b3b:	41 54                	push   %r12
  401b3d:	55                   	push   %rbp
  401b3e:	53                   	push   %rbx
  401b3f:	49 89 fc             	mov    %rdi,%r12
  401b42:	c7 05 f8 45 20 00 00 	movl   $0x0,0x2045f8(%rip)        # 606144 <gets_cnt>
  401b49:	00 00 00 
  401b4c:	48 89 fb             	mov    %rdi,%rbx
  401b4f:	eb 11                	jmp    401b62 <Gets+0x27>
  401b51:	48 8d 6b 01          	lea    0x1(%rbx),%rbp
  401b55:	88 03                	mov    %al,(%rbx)
  401b57:	0f b6 f8             	movzbl %al,%edi
  401b5a:	e8 3c ff ff ff       	callq  401a9b <save_char>
  401b5f:	48 89 eb             	mov    %rbp,%rbx
  401b62:	48 8b 3d a7 39 20 00 	mov    0x2039a7(%rip),%rdi        # 605510 <infile>
  401b69:	e8 62 f2 ff ff       	callq  400dd0 <_IO_getc@plt>
  401b6e:	83 f8 ff             	cmp    $0xffffffff,%eax
  401b71:	74 05                	je     401b78 <Gets+0x3d>
  401b73:	83 f8 0a             	cmp    $0xa,%eax
  401b76:	75 d9                	jne    401b51 <Gets+0x16>
  401b78:	c6 03 00             	movb   $0x0,(%rbx)
  401b7b:	b8 00 00 00 00       	mov    $0x0,%eax
  401b80:	e8 6e ff ff ff       	callq  401af3 <save_term>
  401b85:	4c 89 e0             	mov    %r12,%rax
  401b88:	5b                   	pop    %rbx
  401b89:	5d                   	pop    %rbp
  401b8a:	41 5c                	pop    %r12
  401b8c:	c3                   	retq   

0000000000401b8d <notify_server>:
  401b8d:	53                   	push   %rbx
  401b8e:	48 81 ec 10 40 00 00 	sub    $0x4010,%rsp
  401b95:	64 48 8b 04 25 28 00 	mov    %fs:0x28,%rax
  401b9c:	00 00 
  401b9e:	48 89 84 24 08 40 00 	mov    %rax,0x4008(%rsp)
  401ba5:	00 
  401ba6:	31 c0                	xor    %eax,%eax
  401ba8:	83 3d 79 39 20 00 00 	cmpl   $0x0,0x203979(%rip)        # 605528 <is_checker>
  401baf:	0f 85 aa 01 00 00    	jne    401d5f <notify_server+0x1d2>
  401bb5:	89 fb                	mov    %edi,%ebx
  401bb7:	8b 05 87 45 20 00    	mov    0x204587(%rip),%eax        # 606144 <gets_cnt>
  401bbd:	83 c0 64             	add    $0x64,%eax
  401bc0:	3d 00 20 00 00       	cmp    $0x2000,%eax
  401bc5:	7e 1e                	jle    401be5 <notify_server+0x58>
  401bc7:	be 40 35 40 00       	mov    $0x403540,%esi
  401bcc:	bf 01 00 00 00       	mov    $0x1,%edi
  401bd1:	b8 00 00 00 00       	mov    $0x0,%eax
  401bd6:	e8 25 f2 ff ff       	callq  400e00 <__printf_chk@plt>
  401bdb:	bf 01 00 00 00       	mov    $0x1,%edi
  401be0:	e8 6b f2 ff ff       	callq  400e50 <exit@plt>
  401be5:	0f be 05 5c 45 20 00 	movsbl 0x20455c(%rip),%eax        # 606148 <target_prefix>
  401bec:	83 3d b5 38 20 00 00 	cmpl   $0x0,0x2038b5(%rip)        # 6054a8 <notify>
  401bf3:	74 08                	je     401bfd <notify_server+0x70>
  401bf5:	8b 15 25 39 20 00    	mov    0x203925(%rip),%edx        # 605520 <authkey>
  401bfb:	eb 05                	jmp    401c02 <notify_server+0x75>
  401bfd:	ba ff ff ff ff       	mov    $0xffffffff,%edx
  401c02:	85 db                	test   %ebx,%ebx
  401c04:	74 08                	je     401c0e <notify_server+0x81>
  401c06:	41 b9 21 34 40 00    	mov    $0x403421,%r9d
  401c0c:	eb 06                	jmp    401c14 <notify_server+0x87>
  401c0e:	41 b9 26 34 40 00    	mov    $0x403426,%r9d
  401c14:	68 40 55 60 00       	pushq  $0x605540
  401c19:	56                   	push   %rsi
  401c1a:	50                   	push   %rax
  401c1b:	52                   	push   %rdx
  401c1c:	44 8b 05 45 35 20 00 	mov    0x203545(%rip),%r8d        # 605168 <target_id>
  401c23:	b9 2b 34 40 00       	mov    $0x40342b,%ecx
  401c28:	ba 00 20 00 00       	mov    $0x2000,%edx
  401c2d:	be 01 00 00 00       	mov    $0x1,%esi
  401c32:	48 8d 7c 24 20       	lea    0x20(%rsp),%rdi
  401c37:	b8 00 00 00 00       	mov    $0x0,%eax
  401c3c:	e8 3f f2 ff ff       	callq  400e80 <__sprintf_chk@plt>
  401c41:	48 83 c4 20          	add    $0x20,%rsp
  401c45:	83 3d 5c 38 20 00 00 	cmpl   $0x0,0x20385c(%rip)        # 6054a8 <notify>
  401c4c:	0f 84 81 00 00 00    	je     401cd3 <notify_server+0x146>
  401c52:	85 db                	test   %ebx,%ebx
  401c54:	74 6e                	je     401cc4 <notify_server+0x137>
  401c56:	4c 8d 8c 24 00 20 00 	lea    0x2000(%rsp),%r9
  401c5d:	00 
  401c5e:	41 b8 00 00 00 00    	mov    $0x0,%r8d
  401c64:	48 89 e1             	mov    %rsp,%rcx
  401c67:	48 8b 15 02 35 20 00 	mov    0x203502(%rip),%rdx        # 605170 <lab>
  401c6e:	48 8b 35 03 35 20 00 	mov    0x203503(%rip),%rsi        # 605178 <course>
  401c75:	48 8b 3d e4 34 20 00 	mov    0x2034e4(%rip),%rdi        # 605160 <user_id>
  401c7c:	e8 ef 10 00 00       	callq  402d70 <driver_post>
  401c81:	85 c0                	test   %eax,%eax
  401c83:	79 26                	jns    401cab <notify_server+0x11e>
  401c85:	48 8d 94 24 00 20 00 	lea    0x2000(%rsp),%rdx
  401c8c:	00 
  401c8d:	be 47 34 40 00       	mov    $0x403447,%esi
  401c92:	bf 01 00 00 00       	mov    $0x1,%edi
  401c97:	b8 00 00 00 00       	mov    $0x0,%eax
  401c9c:	e8 5f f1 ff ff       	callq  400e00 <__printf_chk@plt>
  401ca1:	bf 01 00 00 00       	mov    $0x1,%edi
  401ca6:	e8 a5 f1 ff ff       	callq  400e50 <exit@plt>
  401cab:	bf 70 35 40 00       	mov    $0x403570,%edi
  401cb0:	e8 1b f0 ff ff       	callq  400cd0 <puts@plt>
  401cb5:	bf 53 34 40 00       	mov    $0x403453,%edi
  401cba:	e8 11 f0 ff ff       	callq  400cd0 <puts@plt>
  401cbf:	e9 9b 00 00 00       	jmpq   401d5f <notify_server+0x1d2>
  401cc4:	bf 5d 34 40 00       	mov    $0x40345d,%edi
  401cc9:	e8 02 f0 ff ff       	callq  400cd0 <puts@plt>
  401cce:	e9 8c 00 00 00       	jmpq   401d5f <notify_server+0x1d2>
  401cd3:	85 db                	test   %ebx,%ebx
  401cd5:	74 07                	je     401cde <notify_server+0x151>
  401cd7:	ba 21 34 40 00       	mov    $0x403421,%edx
  401cdc:	eb 05                	jmp    401ce3 <notify_server+0x156>
  401cde:	ba 26 34 40 00       	mov    $0x403426,%edx
  401ce3:	be a8 35 40 00       	mov    $0x4035a8,%esi
  401ce8:	bf 01 00 00 00       	mov    $0x1,%edi
  401ced:	b8 00 00 00 00       	mov    $0x0,%eax
  401cf2:	e8 09 f1 ff ff       	callq  400e00 <__printf_chk@plt>
  401cf7:	48 8b 15 62 34 20 00 	mov    0x203462(%rip),%rdx        # 605160 <user_id>
  401cfe:	be 64 34 40 00       	mov    $0x403464,%esi
  401d03:	bf 01 00 00 00       	mov    $0x1,%edi
  401d08:	b8 00 00 00 00       	mov    $0x0,%eax
  401d0d:	e8 ee f0 ff ff       	callq  400e00 <__printf_chk@plt>
  401d12:	48 8b 15 5f 34 20 00 	mov    0x20345f(%rip),%rdx        # 605178 <course>
  401d19:	be 71 34 40 00       	mov    $0x403471,%esi
  401d1e:	bf 01 00 00 00       	mov    $0x1,%edi
  401d23:	b8 00 00 00 00       	mov    $0x0,%eax
  401d28:	e8 d3 f0 ff ff       	callq  400e00 <__printf_chk@plt>
  401d2d:	48 8b 15 3c 34 20 00 	mov    0x20343c(%rip),%rdx        # 605170 <lab>
  401d34:	be 7d 34 40 00       	mov    $0x40347d,%esi
  401d39:	bf 01 00 00 00       	mov    $0x1,%edi
  401d3e:	b8 00 00 00 00       	mov    $0x0,%eax
  401d43:	e8 b8 f0 ff ff       	callq  400e00 <__printf_chk@plt>
  401d48:	48 89 e2             	mov    %rsp,%rdx
  401d4b:	be 86 34 40 00       	mov    $0x403486,%esi
  401d50:	bf 01 00 00 00       	mov    $0x1,%edi
  401d55:	b8 00 00 00 00       	mov    $0x0,%eax
  401d5a:	e8 a1 f0 ff ff       	callq  400e00 <__printf_chk@plt>
  401d5f:	48 8b 84 24 08 40 00 	mov    0x4008(%rsp),%rax
  401d66:	00 
  401d67:	64 48 33 04 25 28 00 	xor    %fs:0x28,%rax
  401d6e:	00 00 
  401d70:	74 05                	je     401d77 <notify_server+0x1ea>
  401d72:	e8 79 ef ff ff       	callq  400cf0 <__stack_chk_fail@plt>
  401d77:	48 81 c4 10 40 00 00 	add    $0x4010,%rsp
  401d7e:	5b                   	pop    %rbx
  401d7f:	c3                   	retq   

0000000000401d80 <validate>:
  401d80:	53                   	push   %rbx
  401d81:	89 fb                	mov    %edi,%ebx
  401d83:	83 3d 9e 37 20 00 00 	cmpl   $0x0,0x20379e(%rip)        # 605528 <is_checker>
  401d8a:	74 6b                	je     401df7 <validate+0x77>
  401d8c:	39 3d 8a 37 20 00    	cmp    %edi,0x20378a(%rip)        # 60551c <vlevel>
  401d92:	74 14                	je     401da8 <validate+0x28>
  401d94:	bf 92 34 40 00       	mov    $0x403492,%edi
  401d99:	e8 32 ef ff ff       	callq  400cd0 <puts@plt>
  401d9e:	b8 00 00 00 00       	mov    $0x0,%eax
  401da3:	e8 5e fd ff ff       	callq  401b06 <check_fail>
  401da8:	8b 15 6a 37 20 00    	mov    0x20376a(%rip),%edx        # 605518 <check_level>
  401dae:	39 d7                	cmp    %edx,%edi
  401db0:	74 20                	je     401dd2 <validate+0x52>
  401db2:	89 f9                	mov    %edi,%ecx
  401db4:	be d0 35 40 00       	mov    $0x4035d0,%esi
  401db9:	bf 01 00 00 00       	mov    $0x1,%edi
  401dbe:	b8 00 00 00 00       	mov    $0x0,%eax
  401dc3:	e8 38 f0 ff ff       	callq  400e00 <__printf_chk@plt>
  401dc8:	b8 00 00 00 00       	mov    $0x0,%eax
  401dcd:	e8 34 fd ff ff       	callq  401b06 <check_fail>
  401dd2:	0f be 15 6f 43 20 00 	movsbl 0x20436f(%rip),%edx        # 606148 <target_prefix>
  401dd9:	41 b8 40 55 60 00    	mov    $0x605540,%r8d
  401ddf:	89 f9                	mov    %edi,%ecx
  401de1:	be b0 34 40 00       	mov    $0x4034b0,%esi
  401de6:	bf 01 00 00 00       	mov    $0x1,%edi
  401deb:	b8 00 00 00 00       	mov    $0x0,%eax
  401df0:	e8 0b f0 ff ff       	callq  400e00 <__printf_chk@plt>
  401df5:	eb 49                	jmp    401e40 <validate+0xc0>
  401df7:	3b 3d 1f 37 20 00    	cmp    0x20371f(%rip),%edi        # 60551c <vlevel>
  401dfd:	74 18                	je     401e17 <validate+0x97>
  401dff:	bf 92 34 40 00       	mov    $0x403492,%edi
  401e04:	e8 c7 ee ff ff       	callq  400cd0 <puts@plt>
  401e09:	89 de                	mov    %ebx,%esi
  401e0b:	bf 00 00 00 00       	mov    $0x0,%edi
  401e10:	e8 78 fd ff ff       	callq  401b8d <notify_server>
  401e15:	eb 29                	jmp    401e40 <validate+0xc0>
  401e17:	0f be 0d 2a 43 20 00 	movsbl 0x20432a(%rip),%ecx        # 606148 <target_prefix>
  401e1e:	89 fa                	mov    %edi,%edx
  401e20:	be f8 35 40 00       	mov    $0x4035f8,%esi
  401e25:	bf 01 00 00 00       	mov    $0x1,%edi
  401e2a:	b8 00 00 00 00       	mov    $0x0,%eax
  401e2f:	e8 cc ef ff ff       	callq  400e00 <__printf_chk@plt>
  401e34:	89 de                	mov    %ebx,%esi
  401e36:	bf 01 00 00 00       	mov    $0x1,%edi
  401e3b:	e8 4d fd ff ff       	callq  401b8d <notify_server>
  401e40:	5b                   	pop    %rbx
  401e41:	c3                   	retq   

0000000000401e42 <fail>:
  401e42:	48 83 ec 08          	sub    $0x8,%rsp
  401e46:	83 3d db 36 20 00 00 	cmpl   $0x0,0x2036db(%rip)        # 605528 <is_checker>
  401e4d:	74 0a                	je     401e59 <fail+0x17>
  401e4f:	b8 00 00 00 00       	mov    $0x0,%eax
  401e54:	e8 ad fc ff ff       	callq  401b06 <check_fail>
  401e59:	89 fe                	mov    %edi,%esi
  401e5b:	bf 00 00 00 00       	mov    $0x0,%edi
  401e60:	e8 28 fd ff ff       	callq  401b8d <notify_server>
  401e65:	48 83 c4 08          	add    $0x8,%rsp
  401e69:	c3                   	retq   

0000000000401e6a <bushandler>:
  401e6a:	48 83 ec 08          	sub    $0x8,%rsp
  401e6e:	83 3d b3 36 20 00 00 	cmpl   $0x0,0x2036b3(%rip)        # 605528 <is_checker>
  401e75:	74 14                	je     401e8b <bushandler+0x21>
  401e77:	bf c5 34 40 00       	mov    $0x4034c5,%edi
  401e7c:	e8 4f ee ff ff       	callq  400cd0 <puts@plt>
  401e81:	b8 00 00 00 00       	mov    $0x0,%eax
  401e86:	e8 7b fc ff ff       	callq  401b06 <check_fail>
  401e8b:	bf 30 36 40 00       	mov    $0x403630,%edi
  401e90:	e8 3b ee ff ff       	callq  400cd0 <puts@plt>
  401e95:	bf cf 34 40 00       	mov    $0x4034cf,%edi
  401e9a:	e8 31 ee ff ff       	callq  400cd0 <puts@plt>
  401e9f:	be 00 00 00 00       	mov    $0x0,%esi
  401ea4:	bf 00 00 00 00       	mov    $0x0,%edi
  401ea9:	e8 df fc ff ff       	callq  401b8d <notify_server>
  401eae:	bf 01 00 00 00       	mov    $0x1,%edi
  401eb3:	e8 98 ef ff ff       	callq  400e50 <exit@plt>

0000000000401eb8 <seghandler>:
  401eb8:	48 83 ec 08          	sub    $0x8,%rsp
  401ebc:	83 3d 65 36 20 00 00 	cmpl   $0x0,0x203665(%rip)        # 605528 <is_checker>
  401ec3:	74 14                	je     401ed9 <seghandler+0x21>
  401ec5:	bf e5 34 40 00       	mov    $0x4034e5,%edi
  401eca:	e8 01 ee ff ff       	callq  400cd0 <puts@plt>
  401ecf:	b8 00 00 00 00       	mov    $0x0,%eax
  401ed4:	e8 2d fc ff ff       	callq  401b06 <check_fail>
  401ed9:	bf 50 36 40 00       	mov    $0x403650,%edi
  401ede:	e8 ed ed ff ff       	callq  400cd0 <puts@plt>
  401ee3:	bf cf 34 40 00       	mov    $0x4034cf,%edi
  401ee8:	e8 e3 ed ff ff       	callq  400cd0 <puts@plt>
  401eed:	be 00 00 00 00       	mov    $0x0,%esi
  401ef2:	bf 00 00 00 00       	mov    $0x0,%edi
  401ef7:	e8 91 fc ff ff       	callq  401b8d <notify_server>
  401efc:	bf 01 00 00 00       	mov    $0x1,%edi
  401f01:	e8 4a ef ff ff       	callq  400e50 <exit@plt>

0000000000401f06 <illegalhandler>:
  401f06:	48 83 ec 08          	sub    $0x8,%rsp
  401f0a:	83 3d 17 36 20 00 00 	cmpl   $0x0,0x203617(%rip)        # 605528 <is_checker>
  401f11:	74 14                	je     401f27 <illegalhandler+0x21>
  401f13:	bf f8 34 40 00       	mov    $0x4034f8,%edi
  401f18:	e8 b3 ed ff ff       	callq  400cd0 <puts@plt>
  401f1d:	b8 00 00 00 00       	mov    $0x0,%eax
  401f22:	e8 df fb ff ff       	callq  401b06 <check_fail>
  401f27:	bf 78 36 40 00       	mov    $0x403678,%edi
  401f2c:	e8 9f ed ff ff       	callq  400cd0 <puts@plt>
  401f31:	bf cf 34 40 00       	mov    $0x4034cf,%edi
  401f36:	e8 95 ed ff ff       	callq  400cd0 <puts@plt>
  401f3b:	be 00 00 00 00       	mov    $0x0,%esi
  401f40:	bf 00 00 00 00       	mov    $0x0,%edi
  401f45:	e8 43 fc ff ff       	callq  401b8d <notify_server>
  401f4a:	bf 01 00 00 00       	mov    $0x1,%edi
  401f4f:	e8 fc ee ff ff       	callq  400e50 <exit@plt>

0000000000401f54 <sigalrmhandler>:
  401f54:	48 83 ec 08          	sub    $0x8,%rsp
  401f58:	83 3d c9 35 20 00 00 	cmpl   $0x0,0x2035c9(%rip)        # 605528 <is_checker>
  401f5f:	74 14                	je     401f75 <sigalrmhandler+0x21>
  401f61:	bf 0c 35 40 00       	mov    $0x40350c,%edi
  401f66:	e8 65 ed ff ff       	callq  400cd0 <puts@plt>
  401f6b:	b8 00 00 00 00       	mov    $0x0,%eax
  401f70:	e8 91 fb ff ff       	callq  401b06 <check_fail>
  401f75:	ba 05 00 00 00       	mov    $0x5,%edx
  401f7a:	be a8 36 40 00       	mov    $0x4036a8,%esi
  401f7f:	bf 01 00 00 00       	mov    $0x1,%edi
  401f84:	b8 00 00 00 00       	mov    $0x0,%eax
  401f89:	e8 72 ee ff ff       	callq  400e00 <__printf_chk@plt>
  401f8e:	be 00 00 00 00       	mov    $0x0,%esi
  401f93:	bf 00 00 00 00       	mov    $0x0,%edi
  401f98:	e8 f0 fb ff ff       	callq  401b8d <notify_server>
  401f9d:	bf 01 00 00 00       	mov    $0x1,%edi
  401fa2:	e8 a9 ee ff ff       	callq  400e50 <exit@plt>

0000000000401fa7 <launch>:
  401fa7:	55                   	push   %rbp
  401fa8:	48 89 e5             	mov    %rsp,%rbp
  401fab:	48 83 ec 10          	sub    $0x10,%rsp
  401faf:	48 89 fa             	mov    %rdi,%rdx
  401fb2:	64 48 8b 04 25 28 00 	mov    %fs:0x28,%rax
  401fb9:	00 00 
  401fbb:	48 89 45 f8          	mov    %rax,-0x8(%rbp)
  401fbf:	31 c0                	xor    %eax,%eax
  401fc1:	48 8d 47 1e          	lea    0x1e(%rdi),%rax
  401fc5:	48 83 e0 f0          	and    $0xfffffffffffffff0,%rax
  401fc9:	48 29 c4             	sub    %rax,%rsp
  401fcc:	48 8d 7c 24 0f       	lea    0xf(%rsp),%rdi
  401fd1:	48 83 e7 f0          	and    $0xfffffffffffffff0,%rdi
  401fd5:	be f4 00 00 00       	mov    $0xf4,%esi
  401fda:	e8 31 ed ff ff       	callq  400d10 <memset@plt>
  401fdf:	48 8b 05 da 34 20 00 	mov    0x2034da(%rip),%rax        # 6054c0 <stdin@@GLIBC_2.2.5>
  401fe6:	48 39 05 23 35 20 00 	cmp    %rax,0x203523(%rip)        # 605510 <infile>
  401fed:	75 14                	jne    402003 <launch+0x5c>
  401fef:	be 14 35 40 00       	mov    $0x403514,%esi
  401ff4:	bf 01 00 00 00       	mov    $0x1,%edi
  401ff9:	b8 00 00 00 00       	mov    $0x0,%eax
  401ffe:	e8 fd ed ff ff       	callq  400e00 <__printf_chk@plt>
  402003:	c7 05 0f 35 20 00 00 	movl   $0x0,0x20350f(%rip)        # 60551c <vlevel>
  40200a:	00 00 00 
  40200d:	b8 00 00 00 00       	mov    $0x0,%eax
  402012:	e8 5b fa ff ff       	callq  401a72 <test>
  402017:	83 3d 0a 35 20 00 00 	cmpl   $0x0,0x20350a(%rip)        # 605528 <is_checker>
  40201e:	74 14                	je     402034 <launch+0x8d>
  402020:	bf 21 35 40 00       	mov    $0x403521,%edi
  402025:	e8 a6 ec ff ff       	callq  400cd0 <puts@plt>
  40202a:	b8 00 00 00 00       	mov    $0x0,%eax
  40202f:	e8 d2 fa ff ff       	callq  401b06 <check_fail>
  402034:	bf 2c 35 40 00       	mov    $0x40352c,%edi
  402039:	e8 92 ec ff ff       	callq  400cd0 <puts@plt>
  40203e:	48 8b 45 f8          	mov    -0x8(%rbp),%rax
  402042:	64 48 33 04 25 28 00 	xor    %fs:0x28,%rax
  402049:	00 00 
  40204b:	74 05                	je     402052 <launch+0xab>
  40204d:	e8 9e ec ff ff       	callq  400cf0 <__stack_chk_fail@plt>
  402052:	c9                   	leaveq 
  402053:	c3                   	retq   

0000000000402054 <stable_launch>:
  402054:	53                   	push   %rbx
  402055:	48 89 3d ac 34 20 00 	mov    %rdi,0x2034ac(%rip)        # 605508 <global_offset>
  40205c:	41 b9 00 00 00 00    	mov    $0x0,%r9d
  402062:	41 b8 00 00 00 00    	mov    $0x0,%r8d
  402068:	b9 32 01 00 00       	mov    $0x132,%ecx
  40206d:	ba 07 00 00 00       	mov    $0x7,%edx
  402072:	be 00 00 10 00       	mov    $0x100000,%esi
  402077:	bf 00 60 58 55       	mov    $0x55586000,%edi
  40207c:	e8 7f ec ff ff       	callq  400d00 <mmap@plt>
  402081:	48 89 c3             	mov    %rax,%rbx
  402084:	48 3d 00 60 58 55    	cmp    $0x55586000,%rax
  40208a:	74 37                	je     4020c3 <stable_launch+0x6f>
  40208c:	be 00 00 10 00       	mov    $0x100000,%esi
  402091:	48 89 c7             	mov    %rax,%rdi
  402094:	e8 57 ed ff ff       	callq  400df0 <munmap@plt>
  402099:	b9 00 60 58 55       	mov    $0x55586000,%ecx
  40209e:	ba e0 36 40 00       	mov    $0x4036e0,%edx
  4020a3:	be 01 00 00 00       	mov    $0x1,%esi
  4020a8:	48 8b 3d 31 34 20 00 	mov    0x203431(%rip),%rdi        # 6054e0 <stderr@@GLIBC_2.2.5>
  4020af:	b8 00 00 00 00       	mov    $0x0,%eax
  4020b4:	e8 b7 ed ff ff       	callq  400e70 <__fprintf_chk@plt>
  4020b9:	bf 01 00 00 00       	mov    $0x1,%edi
  4020be:	e8 8d ed ff ff       	callq  400e50 <exit@plt>
  4020c3:	48 8d 90 f8 ff 0f 00 	lea    0xffff8(%rax),%rdx
  4020ca:	48 89 15 7f 40 20 00 	mov    %rdx,0x20407f(%rip)        # 606150 <stack_top>
  4020d1:	48 89 e0             	mov    %rsp,%rax
  4020d4:	48 89 d4             	mov    %rdx,%rsp
  4020d7:	48 89 c2             	mov    %rax,%rdx
  4020da:	48 89 15 1f 34 20 00 	mov    %rdx,0x20341f(%rip)        # 605500 <global_save_stack>
  4020e1:	48 8b 3d 20 34 20 00 	mov    0x203420(%rip),%rdi        # 605508 <global_offset>
  4020e8:	e8 ba fe ff ff       	callq  401fa7 <launch>
  4020ed:	48 8b 05 0c 34 20 00 	mov    0x20340c(%rip),%rax        # 605500 <global_save_stack>
  4020f4:	48 89 c4             	mov    %rax,%rsp
  4020f7:	be 00 00 10 00       	mov    $0x100000,%esi
  4020fc:	48 89 df             	mov    %rbx,%rdi
  4020ff:	e8 ec ec ff ff       	callq  400df0 <munmap@plt>
  402104:	5b                   	pop    %rbx
  402105:	c3                   	retq   

0000000000402106 <rio_readinitb>:
  402106:	89 37                	mov    %esi,(%rdi)
  402108:	c7 47 04 00 00 00 00 	movl   $0x0,0x4(%rdi)
  40210f:	48 8d 47 10          	lea    0x10(%rdi),%rax
  402113:	48 89 47 08          	mov    %rax,0x8(%rdi)
  402117:	c3                   	retq   

0000000000402118 <sigalrm_handler>:
  402118:	48 83 ec 08          	sub    $0x8,%rsp
  40211c:	b9 00 00 00 00       	mov    $0x0,%ecx
  402121:	ba 20 37 40 00       	mov    $0x403720,%edx
  402126:	be 01 00 00 00       	mov    $0x1,%esi
  40212b:	48 8b 3d ae 33 20 00 	mov    0x2033ae(%rip),%rdi        # 6054e0 <stderr@@GLIBC_2.2.5>
  402132:	b8 00 00 00 00       	mov    $0x0,%eax
  402137:	e8 34 ed ff ff       	callq  400e70 <__fprintf_chk@plt>
  40213c:	bf 01 00 00 00       	mov    $0x1,%edi
  402141:	e8 0a ed ff ff       	callq  400e50 <exit@plt>

0000000000402146 <rio_writen>:
  402146:	41 55                	push   %r13
  402148:	41 54                	push   %r12
  40214a:	55                   	push   %rbp
  40214b:	53                   	push   %rbx
  40214c:	48 83 ec 08          	sub    $0x8,%rsp
  402150:	41 89 fc             	mov    %edi,%r12d
  402153:	48 89 f5             	mov    %rsi,%rbp
  402156:	49 89 d5             	mov    %rdx,%r13
  402159:	48 89 d3             	mov    %rdx,%rbx
  40215c:	eb 28                	jmp    402186 <rio_writen+0x40>
  40215e:	48 89 da             	mov    %rbx,%rdx
  402161:	48 89 ee             	mov    %rbp,%rsi
  402164:	44 89 e7             	mov    %r12d,%edi
  402167:	e8 74 eb ff ff       	callq  400ce0 <write@plt>
  40216c:	48 85 c0             	test   %rax,%rax
  40216f:	7f 0f                	jg     402180 <rio_writen+0x3a>
  402171:	e8 1a eb ff ff       	callq  400c90 <__errno_location@plt>
  402176:	83 38 04             	cmpl   $0x4,(%rax)
  402179:	75 15                	jne    402190 <rio_writen+0x4a>
  40217b:	b8 00 00 00 00       	mov    $0x0,%eax
  402180:	48 29 c3             	sub    %rax,%rbx
  402183:	48 01 c5             	add    %rax,%rbp
  402186:	48 85 db             	test   %rbx,%rbx
  402189:	75 d3                	jne    40215e <rio_writen+0x18>
  40218b:	4c 89 e8             	mov    %r13,%rax
  40218e:	eb 07                	jmp    402197 <rio_writen+0x51>
  402190:	48 c7 c0 ff ff ff ff 	mov    $0xffffffffffffffff,%rax
  402197:	48 83 c4 08          	add    $0x8,%rsp
  40219b:	5b                   	pop    %rbx
  40219c:	5d                   	pop    %rbp
  40219d:	41 5c                	pop    %r12
  40219f:	41 5d                	pop    %r13
  4021a1:	c3                   	retq   

00000000004021a2 <rio_read>:
  4021a2:	41 55                	push   %r13
  4021a4:	41 54                	push   %r12
  4021a6:	55                   	push   %rbp
  4021a7:	53                   	push   %rbx
  4021a8:	48 83 ec 08          	sub    $0x8,%rsp
  4021ac:	48 89 fb             	mov    %rdi,%rbx
  4021af:	49 89 f5             	mov    %rsi,%r13
  4021b2:	49 89 d4             	mov    %rdx,%r12
  4021b5:	eb 2e                	jmp    4021e5 <rio_read+0x43>
  4021b7:	48 8d 6b 10          	lea    0x10(%rbx),%rbp
  4021bb:	8b 3b                	mov    (%rbx),%edi
  4021bd:	ba 00 20 00 00       	mov    $0x2000,%edx
  4021c2:	48 89 ee             	mov    %rbp,%rsi
  4021c5:	e8 76 eb ff ff       	callq  400d40 <read@plt>
  4021ca:	89 43 04             	mov    %eax,0x4(%rbx)
  4021cd:	85 c0                	test   %eax,%eax
  4021cf:	79 0c                	jns    4021dd <rio_read+0x3b>
  4021d1:	e8 ba ea ff ff       	callq  400c90 <__errno_location@plt>
  4021d6:	83 38 04             	cmpl   $0x4,(%rax)
  4021d9:	74 0a                	je     4021e5 <rio_read+0x43>
  4021db:	eb 37                	jmp    402214 <rio_read+0x72>
  4021dd:	85 c0                	test   %eax,%eax
  4021df:	74 3c                	je     40221d <rio_read+0x7b>
  4021e1:	48 89 6b 08          	mov    %rbp,0x8(%rbx)
  4021e5:	8b 6b 04             	mov    0x4(%rbx),%ebp
  4021e8:	85 ed                	test   %ebp,%ebp
  4021ea:	7e cb                	jle    4021b7 <rio_read+0x15>
  4021ec:	89 e8                	mov    %ebp,%eax
  4021ee:	49 39 c4             	cmp    %rax,%r12
  4021f1:	77 03                	ja     4021f6 <rio_read+0x54>
  4021f3:	44 89 e5             	mov    %r12d,%ebp
  4021f6:	4c 63 e5             	movslq %ebp,%r12
  4021f9:	48 8b 73 08          	mov    0x8(%rbx),%rsi
  4021fd:	4c 89 e2             	mov    %r12,%rdx
  402200:	4c 89 ef             	mov    %r13,%rdi
  402203:	e8 98 eb ff ff       	callq  400da0 <memcpy@plt>
  402208:	4c 01 63 08          	add    %r12,0x8(%rbx)
  40220c:	29 6b 04             	sub    %ebp,0x4(%rbx)
  40220f:	4c 89 e0             	mov    %r12,%rax
  402212:	eb 0e                	jmp    402222 <rio_read+0x80>
  402214:	48 c7 c0 ff ff ff ff 	mov    $0xffffffffffffffff,%rax
  40221b:	eb 05                	jmp    402222 <rio_read+0x80>
  40221d:	b8 00 00 00 00       	mov    $0x0,%eax
  402222:	48 83 c4 08          	add    $0x8,%rsp
  402226:	5b                   	pop    %rbx
  402227:	5d                   	pop    %rbp
  402228:	41 5c                	pop    %r12
  40222a:	41 5d                	pop    %r13
  40222c:	c3                   	retq   

000000000040222d <rio_readlineb>:
  40222d:	41 55                	push   %r13
  40222f:	41 54                	push   %r12
  402231:	55                   	push   %rbp
  402232:	53                   	push   %rbx
  402233:	48 83 ec 18          	sub    $0x18,%rsp
  402237:	49 89 fd             	mov    %rdi,%r13
  40223a:	48 89 f5             	mov    %rsi,%rbp
  40223d:	49 89 d4             	mov    %rdx,%r12
  402240:	64 48 8b 04 25 28 00 	mov    %fs:0x28,%rax
  402247:	00 00 
  402249:	48 89 44 24 08       	mov    %rax,0x8(%rsp)
  40224e:	31 c0                	xor    %eax,%eax
  402250:	bb 01 00 00 00       	mov    $0x1,%ebx
  402255:	eb 3f                	jmp    402296 <rio_readlineb+0x69>
  402257:	ba 01 00 00 00       	mov    $0x1,%edx
  40225c:	48 8d 74 24 07       	lea    0x7(%rsp),%rsi
  402261:	4c 89 ef             	mov    %r13,%rdi
  402264:	e8 39 ff ff ff       	callq  4021a2 <rio_read>
  402269:	83 f8 01             	cmp    $0x1,%eax
  40226c:	75 15                	jne    402283 <rio_readlineb+0x56>
  40226e:	48 8d 45 01          	lea    0x1(%rbp),%rax
  402272:	0f b6 54 24 07       	movzbl 0x7(%rsp),%edx
  402277:	88 55 00             	mov    %dl,0x0(%rbp)
  40227a:	80 7c 24 07 0a       	cmpb   $0xa,0x7(%rsp)
  40227f:	75 0e                	jne    40228f <rio_readlineb+0x62>
  402281:	eb 1a                	jmp    40229d <rio_readlineb+0x70>
  402283:	85 c0                	test   %eax,%eax
  402285:	75 22                	jne    4022a9 <rio_readlineb+0x7c>
  402287:	48 83 fb 01          	cmp    $0x1,%rbx
  40228b:	75 13                	jne    4022a0 <rio_readlineb+0x73>
  40228d:	eb 23                	jmp    4022b2 <rio_readlineb+0x85>
  40228f:	48 83 c3 01          	add    $0x1,%rbx
  402293:	48 89 c5             	mov    %rax,%rbp
  402296:	4c 39 e3             	cmp    %r12,%rbx
  402299:	72 bc                	jb     402257 <rio_readlineb+0x2a>
  40229b:	eb 03                	jmp    4022a0 <rio_readlineb+0x73>
  40229d:	48 89 c5             	mov    %rax,%rbp
  4022a0:	c6 45 00 00          	movb   $0x0,0x0(%rbp)
  4022a4:	48 89 d8             	mov    %rbx,%rax
  4022a7:	eb 0e                	jmp    4022b7 <rio_readlineb+0x8a>
  4022a9:	48 c7 c0 ff ff ff ff 	mov    $0xffffffffffffffff,%rax
  4022b0:	eb 05                	jmp    4022b7 <rio_readlineb+0x8a>
  4022b2:	b8 00 00 00 00       	mov    $0x0,%eax
  4022b7:	48 8b 4c 24 08       	mov    0x8(%rsp),%rcx
  4022bc:	64 48 33 0c 25 28 00 	xor    %fs:0x28,%rcx
  4022c3:	00 00 
  4022c5:	74 05                	je     4022cc <rio_readlineb+0x9f>
  4022c7:	e8 24 ea ff ff       	callq  400cf0 <__stack_chk_fail@plt>
  4022cc:	48 83 c4 18          	add    $0x18,%rsp
  4022d0:	5b                   	pop    %rbx
  4022d1:	5d                   	pop    %rbp
  4022d2:	41 5c                	pop    %r12
  4022d4:	41 5d                	pop    %r13
  4022d6:	c3                   	retq   

00000000004022d7 <urlencode>:
  4022d7:	41 54                	push   %r12
  4022d9:	55                   	push   %rbp
  4022da:	53                   	push   %rbx
  4022db:	48 83 ec 10          	sub    $0x10,%rsp
  4022df:	48 89 fb             	mov    %rdi,%rbx
  4022e2:	48 89 f5             	mov    %rsi,%rbp
  4022e5:	64 48 8b 04 25 28 00 	mov    %fs:0x28,%rax
  4022ec:	00 00 
  4022ee:	48 89 44 24 08       	mov    %rax,0x8(%rsp)
  4022f3:	31 c0                	xor    %eax,%eax
  4022f5:	48 c7 c1 ff ff ff ff 	mov    $0xffffffffffffffff,%rcx
  4022fc:	f2 ae                	repnz scas %es:(%rdi),%al
  4022fe:	48 f7 d1             	not    %rcx
  402301:	8d 41 ff             	lea    -0x1(%rcx),%eax
  402304:	e9 aa 00 00 00       	jmpq   4023b3 <urlencode+0xdc>
  402309:	44 0f b6 03          	movzbl (%rbx),%r8d
  40230d:	41 80 f8 2a          	cmp    $0x2a,%r8b
  402311:	0f 94 c2             	sete   %dl
  402314:	41 80 f8 2d          	cmp    $0x2d,%r8b
  402318:	0f 94 c0             	sete   %al
  40231b:	08 c2                	or     %al,%dl
  40231d:	75 24                	jne    402343 <urlencode+0x6c>
  40231f:	41 80 f8 2e          	cmp    $0x2e,%r8b
  402323:	74 1e                	je     402343 <urlencode+0x6c>
  402325:	41 80 f8 5f          	cmp    $0x5f,%r8b
  402329:	74 18                	je     402343 <urlencode+0x6c>
  40232b:	41 8d 40 d0          	lea    -0x30(%r8),%eax
  40232f:	3c 09                	cmp    $0x9,%al
  402331:	76 10                	jbe    402343 <urlencode+0x6c>
  402333:	41 8d 40 bf          	lea    -0x41(%r8),%eax
  402337:	3c 19                	cmp    $0x19,%al
  402339:	76 08                	jbe    402343 <urlencode+0x6c>
  40233b:	41 8d 40 9f          	lea    -0x61(%r8),%eax
  40233f:	3c 19                	cmp    $0x19,%al
  402341:	77 0a                	ja     40234d <urlencode+0x76>
  402343:	44 88 45 00          	mov    %r8b,0x0(%rbp)
  402347:	48 8d 6d 01          	lea    0x1(%rbp),%rbp
  40234b:	eb 5f                	jmp    4023ac <urlencode+0xd5>
  40234d:	41 80 f8 20          	cmp    $0x20,%r8b
  402351:	75 0a                	jne    40235d <urlencode+0x86>
  402353:	c6 45 00 2b          	movb   $0x2b,0x0(%rbp)
  402357:	48 8d 6d 01          	lea    0x1(%rbp),%rbp
  40235b:	eb 4f                	jmp    4023ac <urlencode+0xd5>
  40235d:	41 8d 40 e0          	lea    -0x20(%r8),%eax
  402361:	3c 5f                	cmp    $0x5f,%al
  402363:	0f 96 c2             	setbe  %dl
  402366:	41 80 f8 09          	cmp    $0x9,%r8b
  40236a:	0f 94 c0             	sete   %al
  40236d:	08 c2                	or     %al,%dl
  40236f:	74 50                	je     4023c1 <urlencode+0xea>
  402371:	45 0f b6 c0          	movzbl %r8b,%r8d
  402375:	b9 b8 37 40 00       	mov    $0x4037b8,%ecx
  40237a:	ba 08 00 00 00       	mov    $0x8,%edx
  40237f:	be 01 00 00 00       	mov    $0x1,%esi
  402384:	48 89 e7             	mov    %rsp,%rdi
  402387:	b8 00 00 00 00       	mov    $0x0,%eax
  40238c:	e8 ef ea ff ff       	callq  400e80 <__sprintf_chk@plt>
  402391:	0f b6 04 24          	movzbl (%rsp),%eax
  402395:	88 45 00             	mov    %al,0x0(%rbp)
  402398:	0f b6 44 24 01       	movzbl 0x1(%rsp),%eax
  40239d:	88 45 01             	mov    %al,0x1(%rbp)
  4023a0:	0f b6 44 24 02       	movzbl 0x2(%rsp),%eax
  4023a5:	88 45 02             	mov    %al,0x2(%rbp)
  4023a8:	48 8d 6d 03          	lea    0x3(%rbp),%rbp
  4023ac:	48 83 c3 01          	add    $0x1,%rbx
  4023b0:	44 89 e0             	mov    %r12d,%eax
  4023b3:	44 8d 60 ff          	lea    -0x1(%rax),%r12d
  4023b7:	85 c0                	test   %eax,%eax
  4023b9:	0f 85 4a ff ff ff    	jne    402309 <urlencode+0x32>
  4023bf:	eb 05                	jmp    4023c6 <urlencode+0xef>
  4023c1:	b8 ff ff ff ff       	mov    $0xffffffff,%eax
  4023c6:	48 8b 74 24 08       	mov    0x8(%rsp),%rsi
  4023cb:	64 48 33 34 25 28 00 	xor    %fs:0x28,%rsi
  4023d2:	00 00 
  4023d4:	74 05                	je     4023db <urlencode+0x104>
  4023d6:	e8 15 e9 ff ff       	callq  400cf0 <__stack_chk_fail@plt>
  4023db:	48 83 c4 10          	add    $0x10,%rsp
  4023df:	5b                   	pop    %rbx
  4023e0:	5d                   	pop    %rbp
  4023e1:	41 5c                	pop    %r12
  4023e3:	c3                   	retq   

00000000004023e4 <submitr>:
  4023e4:	41 57                	push   %r15
  4023e6:	41 56                	push   %r14
  4023e8:	41 55                	push   %r13
  4023ea:	41 54                	push   %r12
  4023ec:	55                   	push   %rbp
  4023ed:	53                   	push   %rbx
  4023ee:	48 81 ec 58 a0 00 00 	sub    $0xa058,%rsp
  4023f5:	49 89 fc             	mov    %rdi,%r12
  4023f8:	89 74 24 04          	mov    %esi,0x4(%rsp)
  4023fc:	49 89 d7             	mov    %rdx,%r15
  4023ff:	49 89 ce             	mov    %rcx,%r14
  402402:	4c 89 44 24 08       	mov    %r8,0x8(%rsp)
  402407:	4d 89 cd             	mov    %r9,%r13
  40240a:	48 8b 9c 24 90 a0 00 	mov    0xa090(%rsp),%rbx
  402411:	00 
  402412:	64 48 8b 04 25 28 00 	mov    %fs:0x28,%rax
  402419:	00 00 
  40241b:	48 89 84 24 48 a0 00 	mov    %rax,0xa048(%rsp)
  402422:	00 
  402423:	31 c0                	xor    %eax,%eax
  402425:	c7 44 24 1c 00 00 00 	movl   $0x0,0x1c(%rsp)
  40242c:	00 
  40242d:	ba 00 00 00 00       	mov    $0x0,%edx
  402432:	be 01 00 00 00       	mov    $0x1,%esi
  402437:	bf 02 00 00 00       	mov    $0x2,%edi
  40243c:	e8 4f ea ff ff       	callq  400e90 <socket@plt>
  402441:	85 c0                	test   %eax,%eax
  402443:	79 4e                	jns    402493 <submitr+0xaf>
  402445:	48 b8 45 72 72 6f 72 	movabs $0x43203a726f727245,%rax
  40244c:	3a 20 43 
  40244f:	48 89 03             	mov    %rax,(%rbx)
  402452:	48 b8 6c 69 65 6e 74 	movabs $0x6e7520746e65696c,%rax
  402459:	20 75 6e 
  40245c:	48 89 43 08          	mov    %rax,0x8(%rbx)
  402460:	48 b8 61 62 6c 65 20 	movabs $0x206f7420656c6261,%rax
  402467:	74 6f 20 
  40246a:	48 89 43 10          	mov    %rax,0x10(%rbx)
  40246e:	48 b8 63 72 65 61 74 	movabs $0x7320657461657263,%rax
  402475:	65 20 73 
  402478:	48 89 43 18          	mov    %rax,0x18(%rbx)
  40247c:	c7 43 20 6f 63 6b 65 	movl   $0x656b636f,0x20(%rbx)
  402483:	66 c7 43 24 74 00    	movw   $0x74,0x24(%rbx)
  402489:	b8 ff ff ff ff       	mov    $0xffffffff,%eax
  40248e:	e9 97 06 00 00       	jmpq   402b2a <submitr+0x746>
  402493:	89 c5                	mov    %eax,%ebp
  402495:	4c 89 e7             	mov    %r12,%rdi
  402498:	e8 d3 e8 ff ff       	callq  400d70 <gethostbyname@plt>
  40249d:	48 85 c0             	test   %rax,%rax
  4024a0:	75 67                	jne    402509 <submitr+0x125>
  4024a2:	48 b8 45 72 72 6f 72 	movabs $0x44203a726f727245,%rax
  4024a9:	3a 20 44 
  4024ac:	48 89 03             	mov    %rax,(%rbx)
  4024af:	48 b8 4e 53 20 69 73 	movabs $0x6e7520736920534e,%rax
  4024b6:	20 75 6e 
  4024b9:	48 89 43 08          	mov    %rax,0x8(%rbx)
  4024bd:	48 b8 61 62 6c 65 20 	movabs $0x206f7420656c6261,%rax
  4024c4:	74 6f 20 
  4024c7:	48 89 43 10          	mov    %rax,0x10(%rbx)
  4024cb:	48 b8 72 65 73 6f 6c 	movabs $0x2065766c6f736572,%rax
  4024d2:	76 65 20 
  4024d5:	48 89 43 18          	mov    %rax,0x18(%rbx)
  4024d9:	48 b8 73 65 72 76 65 	movabs $0x6120726576726573,%rax
  4024e0:	72 20 61 
  4024e3:	48 89 43 20          	mov    %rax,0x20(%rbx)
  4024e7:	c7 43 28 64 64 72 65 	movl   $0x65726464,0x28(%rbx)
  4024ee:	66 c7 43 2c 73 73    	movw   $0x7373,0x2c(%rbx)
  4024f4:	c6 43 2e 00          	movb   $0x0,0x2e(%rbx)
  4024f8:	89 ef                	mov    %ebp,%edi
  4024fa:	e8 31 e8 ff ff       	callq  400d30 <close@plt>
  4024ff:	b8 ff ff ff ff       	mov    $0xffffffff,%eax
  402504:	e9 21 06 00 00       	jmpq   402b2a <submitr+0x746>
  402509:	48 c7 44 24 20 00 00 	movq   $0x0,0x20(%rsp)
  402510:	00 00 
  402512:	48 c7 44 24 28 00 00 	movq   $0x0,0x28(%rsp)
  402519:	00 00 
  40251b:	66 c7 44 24 20 02 00 	movw   $0x2,0x20(%rsp)
  402522:	48 63 50 14          	movslq 0x14(%rax),%rdx
  402526:	48 8b 40 18          	mov    0x18(%rax),%rax
  40252a:	48 8b 30             	mov    (%rax),%rsi
  40252d:	48 8d 7c 24 24       	lea    0x24(%rsp),%rdi
  402532:	b9 0c 00 00 00       	mov    $0xc,%ecx
  402537:	e8 44 e8 ff ff       	callq  400d80 <__memmove_chk@plt>
  40253c:	0f b7 44 24 04       	movzwl 0x4(%rsp),%eax
  402541:	66 c1 c8 08          	ror    $0x8,%ax
  402545:	66 89 44 24 22       	mov    %ax,0x22(%rsp)
  40254a:	ba 10 00 00 00       	mov    $0x10,%edx
  40254f:	48 8d 74 24 20       	lea    0x20(%rsp),%rsi
  402554:	89 ef                	mov    %ebp,%edi
  402556:	e8 05 e9 ff ff       	callq  400e60 <connect@plt>
  40255b:	85 c0                	test   %eax,%eax
  40255d:	79 59                	jns    4025b8 <submitr+0x1d4>
  40255f:	48 b8 45 72 72 6f 72 	movabs $0x55203a726f727245,%rax
  402566:	3a 20 55 
  402569:	48 89 03             	mov    %rax,(%rbx)
  40256c:	48 b8 6e 61 62 6c 65 	movabs $0x6f7420656c62616e,%rax
  402573:	20 74 6f 
  402576:	48 89 43 08          	mov    %rax,0x8(%rbx)
  40257a:	48 b8 20 63 6f 6e 6e 	movabs $0x7463656e6e6f6320,%rax
  402581:	65 63 74 
  402584:	48 89 43 10          	mov    %rax,0x10(%rbx)
  402588:	48 b8 20 74 6f 20 74 	movabs $0x20656874206f7420,%rax
  40258f:	68 65 20 
  402592:	48 89 43 18          	mov    %rax,0x18(%rbx)
  402596:	c7 43 20 73 65 72 76 	movl   $0x76726573,0x20(%rbx)
  40259d:	66 c7 43 24 65 72    	movw   $0x7265,0x24(%rbx)
  4025a3:	c6 43 26 00          	movb   $0x0,0x26(%rbx)
  4025a7:	89 ef                	mov    %ebp,%edi
  4025a9:	e8 82 e7 ff ff       	callq  400d30 <close@plt>
  4025ae:	b8 ff ff ff ff       	mov    $0xffffffff,%eax
  4025b3:	e9 72 05 00 00       	jmpq   402b2a <submitr+0x746>
  4025b8:	48 c7 c6 ff ff ff ff 	mov    $0xffffffffffffffff,%rsi
  4025bf:	b8 00 00 00 00       	mov    $0x0,%eax
  4025c4:	48 89 f1             	mov    %rsi,%rcx
  4025c7:	4c 89 ef             	mov    %r13,%rdi
  4025ca:	f2 ae                	repnz scas %es:(%rdi),%al
  4025cc:	48 f7 d1             	not    %rcx
  4025cf:	48 89 ca             	mov    %rcx,%rdx
  4025d2:	48 89 f1             	mov    %rsi,%rcx
  4025d5:	4c 89 ff             	mov    %r15,%rdi
  4025d8:	f2 ae                	repnz scas %es:(%rdi),%al
  4025da:	48 f7 d1             	not    %rcx
  4025dd:	49 89 c8             	mov    %rcx,%r8
  4025e0:	48 89 f1             	mov    %rsi,%rcx
  4025e3:	4c 89 f7             	mov    %r14,%rdi
  4025e6:	f2 ae                	repnz scas %es:(%rdi),%al
  4025e8:	48 f7 d1             	not    %rcx
  4025eb:	4d 8d 44 08 fe       	lea    -0x2(%r8,%rcx,1),%r8
  4025f0:	48 89 f1             	mov    %rsi,%rcx
  4025f3:	48 8b 7c 24 08       	mov    0x8(%rsp),%rdi
  4025f8:	f2 ae                	repnz scas %es:(%rdi),%al
  4025fa:	48 89 c8             	mov    %rcx,%rax
  4025fd:	48 f7 d0             	not    %rax
  402600:	49 8d 4c 00 ff       	lea    -0x1(%r8,%rax,1),%rcx
  402605:	48 8d 44 52 fd       	lea    -0x3(%rdx,%rdx,2),%rax
  40260a:	48 8d 84 01 80 00 00 	lea    0x80(%rcx,%rax,1),%rax
  402611:	00 
  402612:	48 3d 00 20 00 00    	cmp    $0x2000,%rax
  402618:	76 72                	jbe    40268c <submitr+0x2a8>
  40261a:	48 b8 45 72 72 6f 72 	movabs $0x52203a726f727245,%rax
  402621:	3a 20 52 
  402624:	48 89 03             	mov    %rax,(%rbx)
  402627:	48 b8 65 73 75 6c 74 	movabs $0x747320746c757365,%rax
  40262e:	20 73 74 
  402631:	48 89 43 08          	mov    %rax,0x8(%rbx)
  402635:	48 b8 72 69 6e 67 20 	movabs $0x6f6f7420676e6972,%rax
  40263c:	74 6f 6f 
  40263f:	48 89 43 10          	mov    %rax,0x10(%rbx)
  402643:	48 b8 20 6c 61 72 67 	movabs $0x202e656772616c20,%rax
  40264a:	65 2e 20 
  40264d:	48 89 43 18          	mov    %rax,0x18(%rbx)
  402651:	48 b8 49 6e 63 72 65 	movabs $0x6573616572636e49,%rax
  402658:	61 73 65 
  40265b:	48 89 43 20          	mov    %rax,0x20(%rbx)
  40265f:	48 b8 20 53 55 42 4d 	movabs $0x5254494d42555320,%rax
  402666:	49 54 52 
  402669:	48 89 43 28          	mov    %rax,0x28(%rbx)
  40266d:	48 b8 5f 4d 41 58 42 	movabs $0x46554258414d5f,%rax
  402674:	55 46 00 
  402677:	48 89 43 30          	mov    %rax,0x30(%rbx)
  40267b:	89 ef                	mov    %ebp,%edi
  40267d:	e8 ae e6 ff ff       	callq  400d30 <close@plt>
  402682:	b8 ff ff ff ff       	mov    $0xffffffff,%eax
  402687:	e9 9e 04 00 00       	jmpq   402b2a <submitr+0x746>
  40268c:	48 8d b4 24 40 40 00 	lea    0x4040(%rsp),%rsi
  402693:	00 
  402694:	b9 00 04 00 00       	mov    $0x400,%ecx
  402699:	b8 00 00 00 00       	mov    $0x0,%eax
  40269e:	48 89 f7             	mov    %rsi,%rdi
  4026a1:	f3 48 ab             	rep stos %rax,%es:(%rdi)
  4026a4:	4c 89 ef             	mov    %r13,%rdi
  4026a7:	e8 2b fc ff ff       	callq  4022d7 <urlencode>
  4026ac:	85 c0                	test   %eax,%eax
  4026ae:	0f 89 8a 00 00 00    	jns    40273e <submitr+0x35a>
  4026b4:	48 b8 45 72 72 6f 72 	movabs $0x52203a726f727245,%rax
  4026bb:	3a 20 52 
  4026be:	48 89 03             	mov    %rax,(%rbx)
  4026c1:	48 b8 65 73 75 6c 74 	movabs $0x747320746c757365,%rax
  4026c8:	20 73 74 
  4026cb:	48 89 43 08          	mov    %rax,0x8(%rbx)
  4026cf:	48 b8 72 69 6e 67 20 	movabs $0x6e6f6320676e6972,%rax
  4026d6:	63 6f 6e 
  4026d9:	48 89 43 10          	mov    %rax,0x10(%rbx)
  4026dd:	48 b8 74 61 69 6e 73 	movabs $0x6e6120736e696174,%rax
  4026e4:	20 61 6e 
  4026e7:	48 89 43 18          	mov    %rax,0x18(%rbx)
  4026eb:	48 b8 20 69 6c 6c 65 	movabs $0x6c6167656c6c6920,%rax
  4026f2:	67 61 6c 
  4026f5:	48 89 43 20          	mov    %rax,0x20(%rbx)
  4026f9:	48 b8 20 6f 72 20 75 	movabs $0x72706e7520726f20,%rax
  402700:	6e 70 72 
  402703:	48 89 43 28          	mov    %rax,0x28(%rbx)
  402707:	48 b8 69 6e 74 61 62 	movabs $0x20656c6261746e69,%rax
  40270e:	6c 65 20 
  402711:	48 89 43 30          	mov    %rax,0x30(%rbx)
  402715:	48 b8 63 68 61 72 61 	movabs $0x6574636172616863,%rax
  40271c:	63 74 65 
  40271f:	48 89 43 38          	mov    %rax,0x38(%rbx)
  402723:	66 c7 43 40 72 2e    	movw   $0x2e72,0x40(%rbx)
  402729:	c6 43 42 00          	movb   $0x0,0x42(%rbx)
  40272d:	89 ef                	mov    %ebp,%edi
  40272f:	e8 fc e5 ff ff       	callq  400d30 <close@plt>
  402734:	b8 ff ff ff ff       	mov    $0xffffffff,%eax
  402739:	e9 ec 03 00 00       	jmpq   402b2a <submitr+0x746>
  40273e:	4c 8d ac 24 40 20 00 	lea    0x2040(%rsp),%r13
  402745:	00 
  402746:	41 54                	push   %r12
  402748:	48 8d 84 24 48 40 00 	lea    0x4048(%rsp),%rax
  40274f:	00 
  402750:	50                   	push   %rax
  402751:	4d 89 f9             	mov    %r15,%r9
  402754:	4d 89 f0             	mov    %r14,%r8
  402757:	b9 48 37 40 00       	mov    $0x403748,%ecx
  40275c:	ba 00 20 00 00       	mov    $0x2000,%edx
  402761:	be 01 00 00 00       	mov    $0x1,%esi
  402766:	4c 89 ef             	mov    %r13,%rdi
  402769:	b8 00 00 00 00       	mov    $0x0,%eax
  40276e:	e8 0d e7 ff ff       	callq  400e80 <__sprintf_chk@plt>
  402773:	b8 00 00 00 00       	mov    $0x0,%eax
  402778:	48 c7 c1 ff ff ff ff 	mov    $0xffffffffffffffff,%rcx
  40277f:	4c 89 ef             	mov    %r13,%rdi
  402782:	f2 ae                	repnz scas %es:(%rdi),%al
  402784:	48 f7 d1             	not    %rcx
  402787:	48 8d 51 ff          	lea    -0x1(%rcx),%rdx
  40278b:	4c 89 ee             	mov    %r13,%rsi
  40278e:	89 ef                	mov    %ebp,%edi
  402790:	e8 b1 f9 ff ff       	callq  402146 <rio_writen>
  402795:	48 83 c4 10          	add    $0x10,%rsp
  402799:	48 85 c0             	test   %rax,%rax
  40279c:	79 6e                	jns    40280c <submitr+0x428>
  40279e:	48 b8 45 72 72 6f 72 	movabs $0x43203a726f727245,%rax
  4027a5:	3a 20 43 
  4027a8:	48 89 03             	mov    %rax,(%rbx)
  4027ab:	48 b8 6c 69 65 6e 74 	movabs $0x6e7520746e65696c,%rax
  4027b2:	20 75 6e 
  4027b5:	48 89 43 08          	mov    %rax,0x8(%rbx)
  4027b9:	48 b8 61 62 6c 65 20 	movabs $0x206f7420656c6261,%rax
  4027c0:	74 6f 20 
  4027c3:	48 89 43 10          	mov    %rax,0x10(%rbx)
  4027c7:	48 b8 77 72 69 74 65 	movabs $0x6f74206574697277,%rax
  4027ce:	20 74 6f 
  4027d1:	48 89 43 18          	mov    %rax,0x18(%rbx)
  4027d5:	48 b8 20 74 68 65 20 	movabs $0x7365722065687420,%rax
  4027dc:	72 65 73 
  4027df:	48 89 43 20          	mov    %rax,0x20(%rbx)
  4027e3:	48 b8 75 6c 74 20 73 	movabs $0x7672657320746c75,%rax
  4027ea:	65 72 76 
  4027ed:	48 89 43 28          	mov    %rax,0x28(%rbx)
  4027f1:	66 c7 43 30 65 72    	movw   $0x7265,0x30(%rbx)
  4027f7:	c6 43 32 00          	movb   $0x0,0x32(%rbx)
  4027fb:	89 ef                	mov    %ebp,%edi
  4027fd:	e8 2e e5 ff ff       	callq  400d30 <close@plt>
  402802:	b8 ff ff ff ff       	mov    $0xffffffff,%eax
  402807:	e9 1e 03 00 00       	jmpq   402b2a <submitr+0x746>
  40280c:	89 ee                	mov    %ebp,%esi
  40280e:	48 8d 7c 24 30       	lea    0x30(%rsp),%rdi
  402813:	e8 ee f8 ff ff       	callq  402106 <rio_readinitb>
  402818:	ba 00 20 00 00       	mov    $0x2000,%edx
  40281d:	48 8d b4 24 40 20 00 	lea    0x2040(%rsp),%rsi
  402824:	00 
  402825:	48 8d 7c 24 30       	lea    0x30(%rsp),%rdi
  40282a:	e8 fe f9 ff ff       	callq  40222d <rio_readlineb>
  40282f:	48 85 c0             	test   %rax,%rax
  402832:	7f 7d                	jg     4028b1 <submitr+0x4cd>
  402834:	48 b8 45 72 72 6f 72 	movabs $0x43203a726f727245,%rax
  40283b:	3a 20 43 
  40283e:	48 89 03             	mov    %rax,(%rbx)
  402841:	48 b8 6c 69 65 6e 74 	movabs $0x6e7520746e65696c,%rax
  402848:	20 75 6e 
  40284b:	48 89 43 08          	mov    %rax,0x8(%rbx)
  40284f:	48 b8 61 62 6c 65 20 	movabs $0x206f7420656c6261,%rax
  402856:	74 6f 20 
  402859:	48 89 43 10          	mov    %rax,0x10(%rbx)
  40285d:	48 b8 72 65 61 64 20 	movabs $0x7269662064616572,%rax
  402864:	66 69 72 
  402867:	48 89 43 18          	mov    %rax,0x18(%rbx)
  40286b:	48 b8 73 74 20 68 65 	movabs $0x6564616568207473,%rax
  402872:	61 64 65 
  402875:	48 89 43 20          	mov    %rax,0x20(%rbx)
  402879:	48 b8 72 20 66 72 6f 	movabs $0x72206d6f72662072,%rax
  402880:	6d 20 72 
  402883:	48 89 43 28          	mov    %rax,0x28(%rbx)
  402887:	48 b8 65 73 75 6c 74 	movabs $0x657320746c757365,%rax
  40288e:	20 73 65 
  402891:	48 89 43 30          	mov    %rax,0x30(%rbx)
  402895:	c7 43 38 72 76 65 72 	movl   $0x72657672,0x38(%rbx)
  40289c:	c6 43 3c 00          	movb   $0x0,0x3c(%rbx)
  4028a0:	89 ef                	mov    %ebp,%edi
  4028a2:	e8 89 e4 ff ff       	callq  400d30 <close@plt>
  4028a7:	b8 ff ff ff ff       	mov    $0xffffffff,%eax
  4028ac:	e9 79 02 00 00       	jmpq   402b2a <submitr+0x746>
  4028b1:	4c 8d 84 24 40 80 00 	lea    0x8040(%rsp),%r8
  4028b8:	00 
  4028b9:	48 8d 4c 24 1c       	lea    0x1c(%rsp),%rcx
  4028be:	48 8d 94 24 40 60 00 	lea    0x6040(%rsp),%rdx
  4028c5:	00 
  4028c6:	be bf 37 40 00       	mov    $0x4037bf,%esi
  4028cb:	48 8d bc 24 40 20 00 	lea    0x2040(%rsp),%rdi
  4028d2:	00 
  4028d3:	b8 00 00 00 00       	mov    $0x0,%eax
  4028d8:	e8 03 e5 ff ff       	callq  400de0 <__isoc99_sscanf@plt>
  4028dd:	e9 95 00 00 00       	jmpq   402977 <submitr+0x593>
  4028e2:	ba 00 20 00 00       	mov    $0x2000,%edx
  4028e7:	48 8d b4 24 40 20 00 	lea    0x2040(%rsp),%rsi
  4028ee:	00 
  4028ef:	48 8d 7c 24 30       	lea    0x30(%rsp),%rdi
  4028f4:	e8 34 f9 ff ff       	callq  40222d <rio_readlineb>
  4028f9:	48 85 c0             	test   %rax,%rax
  4028fc:	7f 79                	jg     402977 <submitr+0x593>
  4028fe:	48 b8 45 72 72 6f 72 	movabs $0x43203a726f727245,%rax
  402905:	3a 20 43 
  402908:	48 89 03             	mov    %rax,(%rbx)
  40290b:	48 b8 6c 69 65 6e 74 	movabs $0x6e7520746e65696c,%rax
  402912:	20 75 6e 
  402915:	48 89 43 08          	mov    %rax,0x8(%rbx)
  402919:	48 b8 61 62 6c 65 20 	movabs $0x206f7420656c6261,%rax
  402920:	74 6f 20 
  402923:	48 89 43 10          	mov    %rax,0x10(%rbx)
  402927:	48 b8 72 65 61 64 20 	movabs $0x6165682064616572,%rax
  40292e:	68 65 61 
  402931:	48 89 43 18          	mov    %rax,0x18(%rbx)
  402935:	48 b8 64 65 72 73 20 	movabs $0x6f72662073726564,%rax
  40293c:	66 72 6f 
  40293f:	48 89 43 20          	mov    %rax,0x20(%rbx)
  402943:	48 b8 6d 20 74 68 65 	movabs $0x657220656874206d,%rax
  40294a:	20 72 65 
  40294d:	48 89 43 28          	mov    %rax,0x28(%rbx)
  402951:	48 b8 73 75 6c 74 20 	movabs $0x72657320746c7573,%rax
  402958:	73 65 72 
  40295b:	48 89 43 30          	mov    %rax,0x30(%rbx)
  40295f:	c7 43 38 76 65 72 00 	movl   $0x726576,0x38(%rbx)
  402966:	89 ef                	mov    %ebp,%edi
  402968:	e8 c3 e3 ff ff       	callq  400d30 <close@plt>
  40296d:	b8 ff ff ff ff       	mov    $0xffffffff,%eax
  402972:	e9 b3 01 00 00       	jmpq   402b2a <submitr+0x746>
  402977:	0f b6 94 24 40 20 00 	movzbl 0x2040(%rsp),%edx
  40297e:	00 
  40297f:	b8 0d 00 00 00       	mov    $0xd,%eax
  402984:	29 d0                	sub    %edx,%eax
  402986:	75 1b                	jne    4029a3 <submitr+0x5bf>
  402988:	0f b6 94 24 41 20 00 	movzbl 0x2041(%rsp),%edx
  40298f:	00 
  402990:	b8 0a 00 00 00       	mov    $0xa,%eax
  402995:	29 d0                	sub    %edx,%eax
  402997:	75 0a                	jne    4029a3 <submitr+0x5bf>
  402999:	0f b6 84 24 42 20 00 	movzbl 0x2042(%rsp),%eax
  4029a0:	00 
  4029a1:	f7 d8                	neg    %eax
  4029a3:	85 c0                	test   %eax,%eax
  4029a5:	0f 85 37 ff ff ff    	jne    4028e2 <submitr+0x4fe>
  4029ab:	ba 00 20 00 00       	mov    $0x2000,%edx
  4029b0:	48 8d b4 24 40 20 00 	lea    0x2040(%rsp),%rsi
  4029b7:	00 
  4029b8:	48 8d 7c 24 30       	lea    0x30(%rsp),%rdi
  4029bd:	e8 6b f8 ff ff       	callq  40222d <rio_readlineb>
  4029c2:	48 85 c0             	test   %rax,%rax
  4029c5:	0f 8f 83 00 00 00    	jg     402a4e <submitr+0x66a>
  4029cb:	48 b8 45 72 72 6f 72 	movabs $0x43203a726f727245,%rax
  4029d2:	3a 20 43 
  4029d5:	48 89 03             	mov    %rax,(%rbx)
  4029d8:	48 b8 6c 69 65 6e 74 	movabs $0x6e7520746e65696c,%rax
  4029df:	20 75 6e 
  4029e2:	48 89 43 08          	mov    %rax,0x8(%rbx)
  4029e6:	48 b8 61 62 6c 65 20 	movabs $0x206f7420656c6261,%rax
  4029ed:	74 6f 20 
  4029f0:	48 89 43 10          	mov    %rax,0x10(%rbx)
  4029f4:	48 b8 72 65 61 64 20 	movabs $0x6174732064616572,%rax
  4029fb:	73 74 61 
  4029fe:	48 89 43 18          	mov    %rax,0x18(%rbx)
  402a02:	48 b8 74 75 73 20 6d 	movabs $0x7373656d20737574,%rax
  402a09:	65 73 73 
  402a0c:	48 89 43 20          	mov    %rax,0x20(%rbx)
  402a10:	48 b8 61 67 65 20 66 	movabs $0x6d6f726620656761,%rax
  402a17:	72 6f 6d 
  402a1a:	48 89 43 28          	mov    %rax,0x28(%rbx)
  402a1e:	48 b8 20 72 65 73 75 	movabs $0x20746c7573657220,%rax
  402a25:	6c 74 20 
  402a28:	48 89 43 30          	mov    %rax,0x30(%rbx)
  402a2c:	c7 43 38 73 65 72 76 	movl   $0x76726573,0x38(%rbx)
  402a33:	66 c7 43 3c 65 72    	movw   $0x7265,0x3c(%rbx)
  402a39:	c6 43 3e 00          	movb   $0x0,0x3e(%rbx)
  402a3d:	89 ef                	mov    %ebp,%edi
  402a3f:	e8 ec e2 ff ff       	callq  400d30 <close@plt>
  402a44:	b8 ff ff ff ff       	mov    $0xffffffff,%eax
  402a49:	e9 dc 00 00 00       	jmpq   402b2a <submitr+0x746>
  402a4e:	44 8b 44 24 1c       	mov    0x1c(%rsp),%r8d
  402a53:	41 81 f8 c8 00 00 00 	cmp    $0xc8,%r8d
  402a5a:	74 37                	je     402a93 <submitr+0x6af>
  402a5c:	4c 8d 8c 24 40 80 00 	lea    0x8040(%rsp),%r9
  402a63:	00 
  402a64:	b9 88 37 40 00       	mov    $0x403788,%ecx
  402a69:	48 c7 c2 ff ff ff ff 	mov    $0xffffffffffffffff,%rdx
  402a70:	be 01 00 00 00       	mov    $0x1,%esi
  402a75:	48 89 df             	mov    %rbx,%rdi
  402a78:	b8 00 00 00 00       	mov    $0x0,%eax
  402a7d:	e8 fe e3 ff ff       	callq  400e80 <__sprintf_chk@plt>
  402a82:	89 ef                	mov    %ebp,%edi
  402a84:	e8 a7 e2 ff ff       	callq  400d30 <close@plt>
  402a89:	b8 ff ff ff ff       	mov    $0xffffffff,%eax
  402a8e:	e9 97 00 00 00       	jmpq   402b2a <submitr+0x746>
  402a93:	48 8d b4 24 40 20 00 	lea    0x2040(%rsp),%rsi
  402a9a:	00 
  402a9b:	48 89 df             	mov    %rbx,%rdi
  402a9e:	e8 1d e2 ff ff       	callq  400cc0 <strcpy@plt>
  402aa3:	89 ef                	mov    %ebp,%edi
  402aa5:	e8 86 e2 ff ff       	callq  400d30 <close@plt>
  402aaa:	0f b6 03             	movzbl (%rbx),%eax
  402aad:	ba 4f 00 00 00       	mov    $0x4f,%edx
  402ab2:	29 c2                	sub    %eax,%edx
  402ab4:	75 22                	jne    402ad8 <submitr+0x6f4>
  402ab6:	0f b6 4b 01          	movzbl 0x1(%rbx),%ecx
  402aba:	b8 4b 00 00 00       	mov    $0x4b,%eax
  402abf:	29 c8                	sub    %ecx,%eax
  402ac1:	75 17                	jne    402ada <submitr+0x6f6>
  402ac3:	0f b6 4b 02          	movzbl 0x2(%rbx),%ecx
  402ac7:	b8 0a 00 00 00       	mov    $0xa,%eax
  402acc:	29 c8                	sub    %ecx,%eax
  402ace:	75 0a                	jne    402ada <submitr+0x6f6>
  402ad0:	0f b6 43 03          	movzbl 0x3(%rbx),%eax
  402ad4:	f7 d8                	neg    %eax
  402ad6:	eb 02                	jmp    402ada <submitr+0x6f6>
  402ad8:	89 d0                	mov    %edx,%eax
  402ada:	85 c0                	test   %eax,%eax
  402adc:	74 40                	je     402b1e <submitr+0x73a>
  402ade:	bf d0 37 40 00       	mov    $0x4037d0,%edi
  402ae3:	b9 05 00 00 00       	mov    $0x5,%ecx
  402ae8:	48 89 de             	mov    %rbx,%rsi
  402aeb:	f3 a6                	repz cmpsb %es:(%rdi),%ds:(%rsi)
  402aed:	0f 97 c0             	seta   %al
  402af0:	0f 92 c1             	setb   %cl
  402af3:	29 c8                	sub    %ecx,%eax
  402af5:	0f be c0             	movsbl %al,%eax
  402af8:	85 c0                	test   %eax,%eax
  402afa:	74 2e                	je     402b2a <submitr+0x746>
  402afc:	85 d2                	test   %edx,%edx
  402afe:	75 13                	jne    402b13 <submitr+0x72f>
  402b00:	0f b6 43 01          	movzbl 0x1(%rbx),%eax
  402b04:	ba 4b 00 00 00       	mov    $0x4b,%edx
  402b09:	29 c2                	sub    %eax,%edx
  402b0b:	75 06                	jne    402b13 <submitr+0x72f>
  402b0d:	0f b6 53 02          	movzbl 0x2(%rbx),%edx
  402b11:	f7 da                	neg    %edx
  402b13:	85 d2                	test   %edx,%edx
  402b15:	75 0e                	jne    402b25 <submitr+0x741>
  402b17:	b8 00 00 00 00       	mov    $0x0,%eax
  402b1c:	eb 0c                	jmp    402b2a <submitr+0x746>
  402b1e:	b8 00 00 00 00       	mov    $0x0,%eax
  402b23:	eb 05                	jmp    402b2a <submitr+0x746>
  402b25:	b8 ff ff ff ff       	mov    $0xffffffff,%eax
  402b2a:	48 8b 9c 24 48 a0 00 	mov    0xa048(%rsp),%rbx
  402b31:	00 
  402b32:	64 48 33 1c 25 28 00 	xor    %fs:0x28,%rbx
  402b39:	00 00 
  402b3b:	74 05                	je     402b42 <submitr+0x75e>
  402b3d:	e8 ae e1 ff ff       	callq  400cf0 <__stack_chk_fail@plt>
  402b42:	48 81 c4 58 a0 00 00 	add    $0xa058,%rsp
  402b49:	5b                   	pop    %rbx
  402b4a:	5d                   	pop    %rbp
  402b4b:	41 5c                	pop    %r12
  402b4d:	41 5d                	pop    %r13
  402b4f:	41 5e                	pop    %r14
  402b51:	41 5f                	pop    %r15
  402b53:	c3                   	retq   

0000000000402b54 <init_timeout>:
  402b54:	85 ff                	test   %edi,%edi
  402b56:	74 23                	je     402b7b <init_timeout+0x27>
  402b58:	53                   	push   %rbx
  402b59:	89 fb                	mov    %edi,%ebx
  402b5b:	85 ff                	test   %edi,%edi
  402b5d:	79 05                	jns    402b64 <init_timeout+0x10>
  402b5f:	bb 00 00 00 00       	mov    $0x0,%ebx
  402b64:	be 18 21 40 00       	mov    $0x402118,%esi
  402b69:	bf 0e 00 00 00       	mov    $0xe,%edi
  402b6e:	e8 ed e1 ff ff       	callq  400d60 <signal@plt>
  402b73:	89 df                	mov    %ebx,%edi
  402b75:	e8 a6 e1 ff ff       	callq  400d20 <alarm@plt>
  402b7a:	5b                   	pop    %rbx
  402b7b:	f3 c3                	repz retq 

0000000000402b7d <init_driver>:
  402b7d:	55                   	push   %rbp
  402b7e:	53                   	push   %rbx
  402b7f:	48 83 ec 28          	sub    $0x28,%rsp
  402b83:	48 89 fd             	mov    %rdi,%rbp
  402b86:	64 48 8b 04 25 28 00 	mov    %fs:0x28,%rax
  402b8d:	00 00 
  402b8f:	48 89 44 24 18       	mov    %rax,0x18(%rsp)
  402b94:	31 c0                	xor    %eax,%eax
  402b96:	be 01 00 00 00       	mov    $0x1,%esi
  402b9b:	bf 0d 00 00 00       	mov    $0xd,%edi
  402ba0:	e8 bb e1 ff ff       	callq  400d60 <signal@plt>
  402ba5:	be 01 00 00 00       	mov    $0x1,%esi
  402baa:	bf 1d 00 00 00       	mov    $0x1d,%edi
  402baf:	e8 ac e1 ff ff       	callq  400d60 <signal@plt>
  402bb4:	be 01 00 00 00       	mov    $0x1,%esi
  402bb9:	bf 1d 00 00 00       	mov    $0x1d,%edi
  402bbe:	e8 9d e1 ff ff       	callq  400d60 <signal@plt>
  402bc3:	ba 00 00 00 00       	mov    $0x0,%edx
  402bc8:	be 01 00 00 00       	mov    $0x1,%esi
  402bcd:	bf 02 00 00 00       	mov    $0x2,%edi
  402bd2:	e8 b9 e2 ff ff       	callq  400e90 <socket@plt>
  402bd7:	85 c0                	test   %eax,%eax
  402bd9:	79 4f                	jns    402c2a <init_driver+0xad>
  402bdb:	48 b8 45 72 72 6f 72 	movabs $0x43203a726f727245,%rax
  402be2:	3a 20 43 
  402be5:	48 89 45 00          	mov    %rax,0x0(%rbp)
  402be9:	48 b8 6c 69 65 6e 74 	movabs $0x6e7520746e65696c,%rax
  402bf0:	20 75 6e 
  402bf3:	48 89 45 08          	mov    %rax,0x8(%rbp)
  402bf7:	48 b8 61 62 6c 65 20 	movabs $0x206f7420656c6261,%rax
  402bfe:	74 6f 20 
  402c01:	48 89 45 10          	mov    %rax,0x10(%rbp)
  402c05:	48 b8 63 72 65 61 74 	movabs $0x7320657461657263,%rax
  402c0c:	65 20 73 
  402c0f:	48 89 45 18          	mov    %rax,0x18(%rbp)
  402c13:	c7 45 20 6f 63 6b 65 	movl   $0x656b636f,0x20(%rbp)
  402c1a:	66 c7 45 24 74 00    	movw   $0x74,0x24(%rbp)
  402c20:	b8 ff ff ff ff       	mov    $0xffffffff,%eax
  402c25:	e9 2a 01 00 00       	jmpq   402d54 <init_driver+0x1d7>
  402c2a:	89 c3                	mov    %eax,%ebx
  402c2c:	bf d5 37 40 00       	mov    $0x4037d5,%edi
  402c31:	e8 3a e1 ff ff       	callq  400d70 <gethostbyname@plt>
  402c36:	48 85 c0             	test   %rax,%rax
  402c39:	75 68                	jne    402ca3 <init_driver+0x126>
  402c3b:	48 b8 45 72 72 6f 72 	movabs $0x44203a726f727245,%rax
  402c42:	3a 20 44 
  402c45:	48 89 45 00          	mov    %rax,0x0(%rbp)
  402c49:	48 b8 4e 53 20 69 73 	movabs $0x6e7520736920534e,%rax
  402c50:	20 75 6e 
  402c53:	48 89 45 08          	mov    %rax,0x8(%rbp)
  402c57:	48 b8 61 62 6c 65 20 	movabs $0x206f7420656c6261,%rax
  402c5e:	74 6f 20 
  402c61:	48 89 45 10          	mov    %rax,0x10(%rbp)
  402c65:	48 b8 72 65 73 6f 6c 	movabs $0x2065766c6f736572,%rax
  402c6c:	76 65 20 
  402c6f:	48 89 45 18          	mov    %rax,0x18(%rbp)
  402c73:	48 b8 73 65 72 76 65 	movabs $0x6120726576726573,%rax
  402c7a:	72 20 61 
  402c7d:	48 89 45 20          	mov    %rax,0x20(%rbp)
  402c81:	c7 45 28 64 64 72 65 	movl   $0x65726464,0x28(%rbp)
  402c88:	66 c7 45 2c 73 73    	movw   $0x7373,0x2c(%rbp)
  402c8e:	c6 45 2e 00          	movb   $0x0,0x2e(%rbp)
  402c92:	89 df                	mov    %ebx,%edi
  402c94:	e8 97 e0 ff ff       	callq  400d30 <close@plt>
  402c99:	b8 ff ff ff ff       	mov    $0xffffffff,%eax
  402c9e:	e9 b1 00 00 00       	jmpq   402d54 <init_driver+0x1d7>
  402ca3:	48 c7 04 24 00 00 00 	movq   $0x0,(%rsp)
  402caa:	00 
  402cab:	48 c7 44 24 08 00 00 	movq   $0x0,0x8(%rsp)
  402cb2:	00 00 
  402cb4:	66 c7 04 24 02 00    	movw   $0x2,(%rsp)
  402cba:	48 63 50 14          	movslq 0x14(%rax),%rdx
  402cbe:	48 8b 40 18          	mov    0x18(%rax),%rax
  402cc2:	48 8b 30             	mov    (%rax),%rsi
  402cc5:	48 8d 7c 24 04       	lea    0x4(%rsp),%rdi
  402cca:	b9 0c 00 00 00       	mov    $0xc,%ecx
  402ccf:	e8 ac e0 ff ff       	callq  400d80 <__memmove_chk@plt>
  402cd4:	66 c7 44 24 02 3c 9a 	movw   $0x9a3c,0x2(%rsp)
  402cdb:	ba 10 00 00 00       	mov    $0x10,%edx
  402ce0:	48 89 e6             	mov    %rsp,%rsi
  402ce3:	89 df                	mov    %ebx,%edi
  402ce5:	e8 76 e1 ff ff       	callq  400e60 <connect@plt>
  402cea:	85 c0                	test   %eax,%eax
  402cec:	79 50                	jns    402d3e <init_driver+0x1c1>
  402cee:	48 b8 45 72 72 6f 72 	movabs $0x55203a726f727245,%rax
  402cf5:	3a 20 55 
  402cf8:	48 89 45 00          	mov    %rax,0x0(%rbp)
  402cfc:	48 b8 6e 61 62 6c 65 	movabs $0x6f7420656c62616e,%rax
  402d03:	20 74 6f 
  402d06:	48 89 45 08          	mov    %rax,0x8(%rbp)
  402d0a:	48 b8 20 63 6f 6e 6e 	movabs $0x7463656e6e6f6320,%rax
  402d11:	65 63 74 
  402d14:	48 89 45 10          	mov    %rax,0x10(%rbp)
  402d18:	48 b8 20 74 6f 20 73 	movabs $0x76726573206f7420,%rax
  402d1f:	65 72 76 
  402d22:	48 89 45 18          	mov    %rax,0x18(%rbp)
  402d26:	66 c7 45 20 65 72    	movw   $0x7265,0x20(%rbp)
  402d2c:	c6 45 22 00          	movb   $0x0,0x22(%rbp)
  402d30:	89 df                	mov    %ebx,%edi
  402d32:	e8 f9 df ff ff       	callq  400d30 <close@plt>
  402d37:	b8 ff ff ff ff       	mov    $0xffffffff,%eax
  402d3c:	eb 16                	jmp    402d54 <init_driver+0x1d7>
  402d3e:	89 df                	mov    %ebx,%edi
  402d40:	e8 eb df ff ff       	callq  400d30 <close@plt>
  402d45:	66 c7 45 00 4f 4b    	movw   $0x4b4f,0x0(%rbp)
  402d4b:	c6 45 02 00          	movb   $0x0,0x2(%rbp)
  402d4f:	b8 00 00 00 00       	mov    $0x0,%eax
  402d54:	48 8b 4c 24 18       	mov    0x18(%rsp),%rcx
  402d59:	64 48 33 0c 25 28 00 	xor    %fs:0x28,%rcx
  402d60:	00 00 
  402d62:	74 05                	je     402d69 <init_driver+0x1ec>
  402d64:	e8 87 df ff ff       	callq  400cf0 <__stack_chk_fail@plt>
  402d69:	48 83 c4 28          	add    $0x28,%rsp
  402d6d:	5b                   	pop    %rbx
  402d6e:	5d                   	pop    %rbp
  402d6f:	c3                   	retq   

0000000000402d70 <driver_post>:
  402d70:	53                   	push   %rbx
  402d71:	4c 89 cb             	mov    %r9,%rbx
  402d74:	45 85 c0             	test   %r8d,%r8d
  402d77:	74 27                	je     402da0 <driver_post+0x30>
  402d79:	48 89 ca             	mov    %rcx,%rdx
  402d7c:	be ec 37 40 00       	mov    $0x4037ec,%esi
  402d81:	bf 01 00 00 00       	mov    $0x1,%edi
  402d86:	b8 00 00 00 00       	mov    $0x0,%eax
  402d8b:	e8 70 e0 ff ff       	callq  400e00 <__printf_chk@plt>
  402d90:	66 c7 03 4f 4b       	movw   $0x4b4f,(%rbx)
  402d95:	c6 43 02 00          	movb   $0x0,0x2(%rbx)
  402d99:	b8 00 00 00 00       	mov    $0x0,%eax
  402d9e:	eb 3f                	jmp    402ddf <driver_post+0x6f>
  402da0:	48 85 ff             	test   %rdi,%rdi
  402da3:	74 2c                	je     402dd1 <driver_post+0x61>
  402da5:	80 3f 00             	cmpb   $0x0,(%rdi)
  402da8:	74 27                	je     402dd1 <driver_post+0x61>
  402daa:	48 83 ec 08          	sub    $0x8,%rsp
  402dae:	41 51                	push   %r9
  402db0:	49 89 c9             	mov    %rcx,%r9
  402db3:	49 89 d0             	mov    %rdx,%r8
  402db6:	48 89 f9             	mov    %rdi,%rcx
  402db9:	48 89 f2             	mov    %rsi,%rdx
  402dbc:	be 9a 3c 00 00       	mov    $0x3c9a,%esi
  402dc1:	bf d5 37 40 00       	mov    $0x4037d5,%edi
  402dc6:	e8 19 f6 ff ff       	callq  4023e4 <submitr>
  402dcb:	48 83 c4 10          	add    $0x10,%rsp
  402dcf:	eb 0e                	jmp    402ddf <driver_post+0x6f>
  402dd1:	66 c7 03 4f 4b       	movw   $0x4b4f,(%rbx)
  402dd6:	c6 43 02 00          	movb   $0x0,0x2(%rbx)
  402dda:	b8 00 00 00 00       	mov    $0x0,%eax
  402ddf:	5b                   	pop    %rbx
  402de0:	c3                   	retq   

0000000000402de1 <check>:
  402de1:	89 f8                	mov    %edi,%eax
  402de3:	c1 e8 1c             	shr    $0x1c,%eax
  402de6:	85 c0                	test   %eax,%eax
  402de8:	74 1d                	je     402e07 <check+0x26>
  402dea:	b9 00 00 00 00       	mov    $0x0,%ecx
  402def:	eb 0b                	jmp    402dfc <check+0x1b>
  402df1:	89 f8                	mov    %edi,%eax
  402df3:	d3 e8                	shr    %cl,%eax
  402df5:	3c 0a                	cmp    $0xa,%al
  402df7:	74 14                	je     402e0d <check+0x2c>
  402df9:	83 c1 08             	add    $0x8,%ecx
  402dfc:	83 f9 1f             	cmp    $0x1f,%ecx
  402dff:	7e f0                	jle    402df1 <check+0x10>
  402e01:	b8 01 00 00 00       	mov    $0x1,%eax
  402e06:	c3                   	retq   
  402e07:	b8 00 00 00 00       	mov    $0x0,%eax
  402e0c:	c3                   	retq   
  402e0d:	b8 00 00 00 00       	mov    $0x0,%eax
  402e12:	c3                   	retq   

0000000000402e13 <gencookie>:
  402e13:	53                   	push   %rbx
  402e14:	83 c7 01             	add    $0x1,%edi
  402e17:	e8 84 de ff ff       	callq  400ca0 <srandom@plt>
  402e1c:	e8 9f df ff ff       	callq  400dc0 <random@plt>
  402e21:	89 c3                	mov    %eax,%ebx
  402e23:	89 c7                	mov    %eax,%edi
  402e25:	e8 b7 ff ff ff       	callq  402de1 <check>
  402e2a:	85 c0                	test   %eax,%eax
  402e2c:	74 ee                	je     402e1c <gencookie+0x9>
  402e2e:	89 d8                	mov    %ebx,%eax
  402e30:	5b                   	pop    %rbx
  402e31:	c3                   	retq   
  402e32:	66 2e 0f 1f 84 00 00 	nopw   %cs:0x0(%rax,%rax,1)
  402e39:	00 00 00 
  402e3c:	0f 1f 40 00          	nopl   0x0(%rax)

0000000000402e40 <__libc_csu_init>:
  402e40:	41 57                	push   %r15
  402e42:	41 56                	push   %r14
  402e44:	41 89 ff             	mov    %edi,%r15d
  402e47:	41 55                	push   %r13
  402e49:	41 54                	push   %r12
  402e4b:	4c 8d 25 be 1f 20 00 	lea    0x201fbe(%rip),%r12        # 604e10 <__frame_dummy_init_array_entry>
  402e52:	55                   	push   %rbp
  402e53:	48 8d 2d be 1f 20 00 	lea    0x201fbe(%rip),%rbp        # 604e18 <__init_array_end>
  402e5a:	53                   	push   %rbx
  402e5b:	49 89 f6             	mov    %rsi,%r14
  402e5e:	49 89 d5             	mov    %rdx,%r13
  402e61:	4c 29 e5             	sub    %r12,%rbp
  402e64:	48 83 ec 08          	sub    $0x8,%rsp
  402e68:	48 c1 fd 03          	sar    $0x3,%rbp
  402e6c:	e8 d7 dd ff ff       	callq  400c48 <_init>
  402e71:	48 85 ed             	test   %rbp,%rbp
  402e74:	74 20                	je     402e96 <__libc_csu_init+0x56>
  402e76:	31 db                	xor    %ebx,%ebx
  402e78:	0f 1f 84 00 00 00 00 	nopl   0x0(%rax,%rax,1)
  402e7f:	00 
  402e80:	4c 89 ea             	mov    %r13,%rdx
  402e83:	4c 89 f6             	mov    %r14,%rsi
  402e86:	44 89 ff             	mov    %r15d,%edi
  402e89:	41 ff 14 dc          	callq  *(%r12,%rbx,8)
  402e8d:	48 83 c3 01          	add    $0x1,%rbx
  402e91:	48 39 eb             	cmp    %rbp,%rbx
  402e94:	75 ea                	jne    402e80 <__libc_csu_init+0x40>
  402e96:	48 83 c4 08          	add    $0x8,%rsp
  402e9a:	5b                   	pop    %rbx
  402e9b:	5d                   	pop    %rbp
  402e9c:	41 5c                	pop    %r12
  402e9e:	41 5d                	pop    %r13
  402ea0:	41 5e                	pop    %r14
  402ea2:	41 5f                	pop    %r15
  402ea4:	c3                   	retq   
  402ea5:	90                   	nop
  402ea6:	66 2e 0f 1f 84 00 00 	nopw   %cs:0x0(%rax,%rax,1)
  402ead:	00 00 00 

0000000000402eb0 <__libc_csu_fini>:
  402eb0:	f3 c3                	repz retq 

Disassembly of section .fini:

0000000000402eb4 <_fini>:
  402eb4:	48 83 ec 08          	sub    $0x8,%rsp
  402eb8:	48 83 c4 08          	add    $0x8,%rsp
  402ebc:	c3                   	retq   
