
rtarget:     file format elf64-x86-64


Disassembly of section .init:

0000000000400c48 <_init>:
  400c48:	48 83 ec 08          	sub    $0x8,%rsp
  400c4c:	48 8b 05 a5 43 20 00 	mov    0x2043a5(%rip),%rax        # 604ff8 <__gmon_start__>
  400c53:	48 85 c0             	test   %rax,%rax
  400c56:	74 05                	je     400c5d <_init+0x15>
  400c58:	e8 43 02 00 00       	callq  400ea0 <__gmon_start__@plt>
  400c5d:	48 83 c4 08          	add    $0x8,%rsp
  400c61:	c3                   	retq   

Disassembly of section .plt:

0000000000400c70 <.plt>:
  400c70:	ff 35 92 43 20 00    	pushq  0x204392(%rip)        # 605008 <_GLOBAL_OFFSET_TABLE_+0x8>
  400c76:	ff 25 94 43 20 00    	jmpq   *0x204394(%rip)        # 605010 <_GLOBAL_OFFSET_TABLE_+0x10>
  400c7c:	0f 1f 40 00          	nopl   0x0(%rax)

0000000000400c80 <strcasecmp@plt>:
  400c80:	ff 25 92 43 20 00    	jmpq   *0x204392(%rip)        # 605018 <strcasecmp@GLIBC_2.2.5>
  400c86:	68 00 00 00 00       	pushq  $0x0
  400c8b:	e9 e0 ff ff ff       	jmpq   400c70 <.plt>

0000000000400c90 <__errno_location@plt>:
  400c90:	ff 25 8a 43 20 00    	jmpq   *0x20438a(%rip)        # 605020 <__errno_location@GLIBC_2.2.5>
  400c96:	68 01 00 00 00       	pushq  $0x1
  400c9b:	e9 d0 ff ff ff       	jmpq   400c70 <.plt>

0000000000400ca0 <srandom@plt>:
  400ca0:	ff 25 82 43 20 00    	jmpq   *0x204382(%rip)        # 605028 <srandom@GLIBC_2.2.5>
  400ca6:	68 02 00 00 00       	pushq  $0x2
  400cab:	e9 c0 ff ff ff       	jmpq   400c70 <.plt>

0000000000400cb0 <strncmp@plt>:
  400cb0:	ff 25 7a 43 20 00    	jmpq   *0x20437a(%rip)        # 605030 <strncmp@GLIBC_2.2.5>
  400cb6:	68 03 00 00 00       	pushq  $0x3
  400cbb:	e9 b0 ff ff ff       	jmpq   400c70 <.plt>

0000000000400cc0 <strcpy@plt>:
  400cc0:	ff 25 72 43 20 00    	jmpq   *0x204372(%rip)        # 605038 <strcpy@GLIBC_2.2.5>
  400cc6:	68 04 00 00 00       	pushq  $0x4
  400ccb:	e9 a0 ff ff ff       	jmpq   400c70 <.plt>

0000000000400cd0 <puts@plt>:
  400cd0:	ff 25 6a 43 20 00    	jmpq   *0x20436a(%rip)        # 605040 <puts@GLIBC_2.2.5>
  400cd6:	68 05 00 00 00       	pushq  $0x5
  400cdb:	e9 90 ff ff ff       	jmpq   400c70 <.plt>

0000000000400ce0 <write@plt>:
  400ce0:	ff 25 62 43 20 00    	jmpq   *0x204362(%rip)        # 605048 <write@GLIBC_2.2.5>
  400ce6:	68 06 00 00 00       	pushq  $0x6
  400ceb:	e9 80 ff ff ff       	jmpq   400c70 <.plt>

0000000000400cf0 <__stack_chk_fail@plt>:
  400cf0:	ff 25 5a 43 20 00    	jmpq   *0x20435a(%rip)        # 605050 <__stack_chk_fail@GLIBC_2.4>
  400cf6:	68 07 00 00 00       	pushq  $0x7
  400cfb:	e9 70 ff ff ff       	jmpq   400c70 <.plt>

0000000000400d00 <mmap@plt>:
  400d00:	ff 25 52 43 20 00    	jmpq   *0x204352(%rip)        # 605058 <mmap@GLIBC_2.2.5>
  400d06:	68 08 00 00 00       	pushq  $0x8
  400d0b:	e9 60 ff ff ff       	jmpq   400c70 <.plt>

0000000000400d10 <memset@plt>:
  400d10:	ff 25 4a 43 20 00    	jmpq   *0x20434a(%rip)        # 605060 <memset@GLIBC_2.2.5>
  400d16:	68 09 00 00 00       	pushq  $0x9
  400d1b:	e9 50 ff ff ff       	jmpq   400c70 <.plt>

0000000000400d20 <alarm@plt>:
  400d20:	ff 25 42 43 20 00    	jmpq   *0x204342(%rip)        # 605068 <alarm@GLIBC_2.2.5>
  400d26:	68 0a 00 00 00       	pushq  $0xa
  400d2b:	e9 40 ff ff ff       	jmpq   400c70 <.plt>

0000000000400d30 <close@plt>:
  400d30:	ff 25 3a 43 20 00    	jmpq   *0x20433a(%rip)        # 605070 <close@GLIBC_2.2.5>
  400d36:	68 0b 00 00 00       	pushq  $0xb
  400d3b:	e9 30 ff ff ff       	jmpq   400c70 <.plt>

0000000000400d40 <read@plt>:
  400d40:	ff 25 32 43 20 00    	jmpq   *0x204332(%rip)        # 605078 <read@GLIBC_2.2.5>
  400d46:	68 0c 00 00 00       	pushq  $0xc
  400d4b:	e9 20 ff ff ff       	jmpq   400c70 <.plt>

0000000000400d50 <__libc_start_main@plt>:
  400d50:	ff 25 2a 43 20 00    	jmpq   *0x20432a(%rip)        # 605080 <__libc_start_main@GLIBC_2.2.5>
  400d56:	68 0d 00 00 00       	pushq  $0xd
  400d5b:	e9 10 ff ff ff       	jmpq   400c70 <.plt>

0000000000400d60 <signal@plt>:
  400d60:	ff 25 22 43 20 00    	jmpq   *0x204322(%rip)        # 605088 <signal@GLIBC_2.2.5>
  400d66:	68 0e 00 00 00       	pushq  $0xe
  400d6b:	e9 00 ff ff ff       	jmpq   400c70 <.plt>

0000000000400d70 <gethostbyname@plt>:
  400d70:	ff 25 1a 43 20 00    	jmpq   *0x20431a(%rip)        # 605090 <gethostbyname@GLIBC_2.2.5>
  400d76:	68 0f 00 00 00       	pushq  $0xf
  400d7b:	e9 f0 fe ff ff       	jmpq   400c70 <.plt>

0000000000400d80 <__memmove_chk@plt>:
  400d80:	ff 25 12 43 20 00    	jmpq   *0x204312(%rip)        # 605098 <__memmove_chk@GLIBC_2.3.4>
  400d86:	68 10 00 00 00       	pushq  $0x10
  400d8b:	e9 e0 fe ff ff       	jmpq   400c70 <.plt>

0000000000400d90 <strtol@plt>:
  400d90:	ff 25 0a 43 20 00    	jmpq   *0x20430a(%rip)        # 6050a0 <strtol@GLIBC_2.2.5>
  400d96:	68 11 00 00 00       	pushq  $0x11
  400d9b:	e9 d0 fe ff ff       	jmpq   400c70 <.plt>

0000000000400da0 <memcpy@plt>:
  400da0:	ff 25 02 43 20 00    	jmpq   *0x204302(%rip)        # 6050a8 <memcpy@GLIBC_2.14>
  400da6:	68 12 00 00 00       	pushq  $0x12
  400dab:	e9 c0 fe ff ff       	jmpq   400c70 <.plt>

0000000000400db0 <time@plt>:
  400db0:	ff 25 fa 42 20 00    	jmpq   *0x2042fa(%rip)        # 6050b0 <time@GLIBC_2.2.5>
  400db6:	68 13 00 00 00       	pushq  $0x13
  400dbb:	e9 b0 fe ff ff       	jmpq   400c70 <.plt>

0000000000400dc0 <random@plt>:
  400dc0:	ff 25 f2 42 20 00    	jmpq   *0x2042f2(%rip)        # 6050b8 <random@GLIBC_2.2.5>
  400dc6:	68 14 00 00 00       	pushq  $0x14
  400dcb:	e9 a0 fe ff ff       	jmpq   400c70 <.plt>

0000000000400dd0 <_IO_getc@plt>:
  400dd0:	ff 25 ea 42 20 00    	jmpq   *0x2042ea(%rip)        # 6050c0 <_IO_getc@GLIBC_2.2.5>
  400dd6:	68 15 00 00 00       	pushq  $0x15
  400ddb:	e9 90 fe ff ff       	jmpq   400c70 <.plt>

0000000000400de0 <__isoc99_sscanf@plt>:
  400de0:	ff 25 e2 42 20 00    	jmpq   *0x2042e2(%rip)        # 6050c8 <__isoc99_sscanf@GLIBC_2.7>
  400de6:	68 16 00 00 00       	pushq  $0x16
  400deb:	e9 80 fe ff ff       	jmpq   400c70 <.plt>

0000000000400df0 <munmap@plt>:
  400df0:	ff 25 da 42 20 00    	jmpq   *0x2042da(%rip)        # 6050d0 <munmap@GLIBC_2.2.5>
  400df6:	68 17 00 00 00       	pushq  $0x17
  400dfb:	e9 70 fe ff ff       	jmpq   400c70 <.plt>

0000000000400e00 <__printf_chk@plt>:
  400e00:	ff 25 d2 42 20 00    	jmpq   *0x2042d2(%rip)        # 6050d8 <__printf_chk@GLIBC_2.3.4>
  400e06:	68 18 00 00 00       	pushq  $0x18
  400e0b:	e9 60 fe ff ff       	jmpq   400c70 <.plt>

0000000000400e10 <fopen@plt>:
  400e10:	ff 25 ca 42 20 00    	jmpq   *0x2042ca(%rip)        # 6050e0 <fopen@GLIBC_2.2.5>
  400e16:	68 19 00 00 00       	pushq  $0x19
  400e1b:	e9 50 fe ff ff       	jmpq   400c70 <.plt>

0000000000400e20 <getopt@plt>:
  400e20:	ff 25 c2 42 20 00    	jmpq   *0x2042c2(%rip)        # 6050e8 <getopt@GLIBC_2.2.5>
  400e26:	68 1a 00 00 00       	pushq  $0x1a
  400e2b:	e9 40 fe ff ff       	jmpq   400c70 <.plt>

0000000000400e30 <strtoul@plt>:
  400e30:	ff 25 ba 42 20 00    	jmpq   *0x2042ba(%rip)        # 6050f0 <strtoul@GLIBC_2.2.5>
  400e36:	68 1b 00 00 00       	pushq  $0x1b
  400e3b:	e9 30 fe ff ff       	jmpq   400c70 <.plt>

0000000000400e40 <gethostname@plt>:
  400e40:	ff 25 b2 42 20 00    	jmpq   *0x2042b2(%rip)        # 6050f8 <gethostname@GLIBC_2.2.5>
  400e46:	68 1c 00 00 00       	pushq  $0x1c
  400e4b:	e9 20 fe ff ff       	jmpq   400c70 <.plt>

0000000000400e50 <exit@plt>:
  400e50:	ff 25 aa 42 20 00    	jmpq   *0x2042aa(%rip)        # 605100 <exit@GLIBC_2.2.5>
  400e56:	68 1d 00 00 00       	pushq  $0x1d
  400e5b:	e9 10 fe ff ff       	jmpq   400c70 <.plt>

0000000000400e60 <connect@plt>:
  400e60:	ff 25 a2 42 20 00    	jmpq   *0x2042a2(%rip)        # 605108 <connect@GLIBC_2.2.5>
  400e66:	68 1e 00 00 00       	pushq  $0x1e
  400e6b:	e9 00 fe ff ff       	jmpq   400c70 <.plt>

0000000000400e70 <__fprintf_chk@plt>:
  400e70:	ff 25 9a 42 20 00    	jmpq   *0x20429a(%rip)        # 605110 <__fprintf_chk@GLIBC_2.3.4>
  400e76:	68 1f 00 00 00       	pushq  $0x1f
  400e7b:	e9 f0 fd ff ff       	jmpq   400c70 <.plt>

0000000000400e80 <__sprintf_chk@plt>:
  400e80:	ff 25 92 42 20 00    	jmpq   *0x204292(%rip)        # 605118 <__sprintf_chk@GLIBC_2.3.4>
  400e86:	68 20 00 00 00       	pushq  $0x20
  400e8b:	e9 e0 fd ff ff       	jmpq   400c70 <.plt>

0000000000400e90 <socket@plt>:
  400e90:	ff 25 8a 42 20 00    	jmpq   *0x20428a(%rip)        # 605120 <socket@GLIBC_2.2.5>
  400e96:	68 21 00 00 00       	pushq  $0x21
  400e9b:	e9 d0 fd ff ff       	jmpq   400c70 <.plt>

Disassembly of section .plt.got:

0000000000400ea0 <__gmon_start__@plt>:
  400ea0:	ff 25 52 41 20 00    	jmpq   *0x204152(%rip)        # 604ff8 <__gmon_start__>
  400ea6:	66 90                	xchg   %ax,%ax

Disassembly of section .text:

0000000000400eb0 <_start>:
  400eb0:	31 ed                	xor    %ebp,%ebp
  400eb2:	49 89 d1             	mov    %rdx,%r9
  400eb5:	5e                   	pop    %rsi
  400eb6:	48 89 e2             	mov    %rsp,%rdx
  400eb9:	48 83 e4 f0          	and    $0xfffffffffffffff0,%rsp
  400ebd:	50                   	push   %rax
  400ebe:	54                   	push   %rsp
  400ebf:	49 c7 c0 d0 2f 40 00 	mov    $0x402fd0,%r8
  400ec6:	48 c7 c1 60 2f 40 00 	mov    $0x402f60,%rcx
  400ecd:	48 c7 c7 b5 11 40 00 	mov    $0x4011b5,%rdi
  400ed4:	e8 77 fe ff ff       	callq  400d50 <__libc_start_main@plt>
  400ed9:	f4                   	hlt    
  400eda:	66 0f 1f 44 00 00    	nopw   0x0(%rax,%rax,1)

0000000000400ee0 <deregister_tm_clones>:
  400ee0:	b8 b7 54 60 00       	mov    $0x6054b7,%eax
  400ee5:	55                   	push   %rbp
  400ee6:	48 2d b0 54 60 00    	sub    $0x6054b0,%rax
  400eec:	48 83 f8 0e          	cmp    $0xe,%rax
  400ef0:	48 89 e5             	mov    %rsp,%rbp
  400ef3:	76 1b                	jbe    400f10 <deregister_tm_clones+0x30>
  400ef5:	b8 00 00 00 00       	mov    $0x0,%eax
  400efa:	48 85 c0             	test   %rax,%rax
  400efd:	74 11                	je     400f10 <deregister_tm_clones+0x30>
  400eff:	5d                   	pop    %rbp
  400f00:	bf b0 54 60 00       	mov    $0x6054b0,%edi
  400f05:	ff e0                	jmpq   *%rax
  400f07:	66 0f 1f 84 00 00 00 	nopw   0x0(%rax,%rax,1)
  400f0e:	00 00 
  400f10:	5d                   	pop    %rbp
  400f11:	c3                   	retq   
  400f12:	0f 1f 40 00          	nopl   0x0(%rax)
  400f16:	66 2e 0f 1f 84 00 00 	nopw   %cs:0x0(%rax,%rax,1)
  400f1d:	00 00 00 

0000000000400f20 <register_tm_clones>:
  400f20:	be b0 54 60 00       	mov    $0x6054b0,%esi
  400f25:	55                   	push   %rbp
  400f26:	48 81 ee b0 54 60 00 	sub    $0x6054b0,%rsi
  400f2d:	48 c1 fe 03          	sar    $0x3,%rsi
  400f31:	48 89 e5             	mov    %rsp,%rbp
  400f34:	48 89 f0             	mov    %rsi,%rax
  400f37:	48 c1 e8 3f          	shr    $0x3f,%rax
  400f3b:	48 01 c6             	add    %rax,%rsi
  400f3e:	48 d1 fe             	sar    %rsi
  400f41:	74 15                	je     400f58 <register_tm_clones+0x38>
  400f43:	b8 00 00 00 00       	mov    $0x0,%eax
  400f48:	48 85 c0             	test   %rax,%rax
  400f4b:	74 0b                	je     400f58 <register_tm_clones+0x38>
  400f4d:	5d                   	pop    %rbp
  400f4e:	bf b0 54 60 00       	mov    $0x6054b0,%edi
  400f53:	ff e0                	jmpq   *%rax
  400f55:	0f 1f 00             	nopl   (%rax)
  400f58:	5d                   	pop    %rbp
  400f59:	c3                   	retq   
  400f5a:	66 0f 1f 44 00 00    	nopw   0x0(%rax,%rax,1)

0000000000400f60 <__do_global_dtors_aux>:
  400f60:	80 3d 81 45 20 00 00 	cmpb   $0x0,0x204581(%rip)        # 6054e8 <completed.7594>
  400f67:	75 11                	jne    400f7a <__do_global_dtors_aux+0x1a>
  400f69:	55                   	push   %rbp
  400f6a:	48 89 e5             	mov    %rsp,%rbp
  400f6d:	e8 6e ff ff ff       	callq  400ee0 <deregister_tm_clones>
  400f72:	5d                   	pop    %rbp
  400f73:	c6 05 6e 45 20 00 01 	movb   $0x1,0x20456e(%rip)        # 6054e8 <completed.7594>
  400f7a:	f3 c3                	repz retq 
  400f7c:	0f 1f 40 00          	nopl   0x0(%rax)

0000000000400f80 <frame_dummy>:
  400f80:	bf 20 4e 60 00       	mov    $0x604e20,%edi
  400f85:	48 83 3f 00          	cmpq   $0x0,(%rdi)
  400f89:	75 05                	jne    400f90 <frame_dummy+0x10>
  400f8b:	eb 93                	jmp    400f20 <register_tm_clones>
  400f8d:	0f 1f 00             	nopl   (%rax)
  400f90:	b8 00 00 00 00       	mov    $0x0,%eax
  400f95:	48 85 c0             	test   %rax,%rax
  400f98:	74 f1                	je     400f8b <frame_dummy+0xb>
  400f9a:	55                   	push   %rbp
  400f9b:	48 89 e5             	mov    %rsp,%rbp
  400f9e:	ff d0                	callq  *%rax
  400fa0:	5d                   	pop    %rbp
  400fa1:	e9 7a ff ff ff       	jmpq   400f20 <register_tm_clones>

0000000000400fa6 <usage>:
  400fa6:	48 83 ec 08          	sub    $0x8,%rsp
  400faa:	48 89 fa             	mov    %rdi,%rdx
  400fad:	83 3d 74 45 20 00 00 	cmpl   $0x0,0x204574(%rip)        # 605528 <is_checker>
  400fb4:	74 3e                	je     400ff4 <usage+0x4e>
  400fb6:	be e8 2f 40 00       	mov    $0x402fe8,%esi
  400fbb:	bf 01 00 00 00       	mov    $0x1,%edi
  400fc0:	b8 00 00 00 00       	mov    $0x0,%eax
  400fc5:	e8 36 fe ff ff       	callq  400e00 <__printf_chk@plt>
  400fca:	bf 20 30 40 00       	mov    $0x403020,%edi
  400fcf:	e8 fc fc ff ff       	callq  400cd0 <puts@plt>
  400fd4:	bf 98 31 40 00       	mov    $0x403198,%edi
  400fd9:	e8 f2 fc ff ff       	callq  400cd0 <puts@plt>
  400fde:	bf 48 30 40 00       	mov    $0x403048,%edi
  400fe3:	e8 e8 fc ff ff       	callq  400cd0 <puts@plt>
  400fe8:	bf b2 31 40 00       	mov    $0x4031b2,%edi
  400fed:	e8 de fc ff ff       	callq  400cd0 <puts@plt>
  400ff2:	eb 32                	jmp    401026 <usage+0x80>
  400ff4:	be ce 31 40 00       	mov    $0x4031ce,%esi
  400ff9:	bf 01 00 00 00       	mov    $0x1,%edi
  400ffe:	b8 00 00 00 00       	mov    $0x0,%eax
  401003:	e8 f8 fd ff ff       	callq  400e00 <__printf_chk@plt>
  401008:	bf 70 30 40 00       	mov    $0x403070,%edi
  40100d:	e8 be fc ff ff       	callq  400cd0 <puts@plt>
  401012:	bf 98 30 40 00       	mov    $0x403098,%edi
  401017:	e8 b4 fc ff ff       	callq  400cd0 <puts@plt>
  40101c:	bf ec 31 40 00       	mov    $0x4031ec,%edi
  401021:	e8 aa fc ff ff       	callq  400cd0 <puts@plt>
  401026:	bf 00 00 00 00       	mov    $0x0,%edi
  40102b:	e8 20 fe ff ff       	callq  400e50 <exit@plt>

0000000000401030 <initialize_target>:
  401030:	55                   	push   %rbp
  401031:	53                   	push   %rbx
  401032:	48 81 ec 18 21 00 00 	sub    $0x2118,%rsp
  401039:	89 f5                	mov    %esi,%ebp
  40103b:	64 48 8b 04 25 28 00 	mov    %fs:0x28,%rax
  401042:	00 00 
  401044:	48 89 84 24 08 21 00 	mov    %rax,0x2108(%rsp)
  40104b:	00 
  40104c:	31 c0                	xor    %eax,%eax
  40104e:	89 3d c4 44 20 00    	mov    %edi,0x2044c4(%rip)        # 605518 <check_level>
  401054:	8b 3d 0e 41 20 00    	mov    0x20410e(%rip),%edi        # 605168 <target_id>
  40105a:	e8 d6 1e 00 00       	callq  402f35 <gencookie>
  40105f:	89 05 bf 44 20 00    	mov    %eax,0x2044bf(%rip)        # 605524 <cookie>
  401065:	89 c7                	mov    %eax,%edi
  401067:	e8 c9 1e 00 00       	callq  402f35 <gencookie>
  40106c:	89 05 ae 44 20 00    	mov    %eax,0x2044ae(%rip)        # 605520 <authkey>
  401072:	8b 05 f0 40 20 00    	mov    0x2040f0(%rip),%eax        # 605168 <target_id>
  401078:	8d 78 01             	lea    0x1(%rax),%edi
  40107b:	e8 20 fc ff ff       	callq  400ca0 <srandom@plt>
  401080:	e8 3b fd ff ff       	callq  400dc0 <random@plt>
  401085:	89 c7                	mov    %eax,%edi
  401087:	e8 03 03 00 00       	callq  40138f <scramble>
  40108c:	89 c3                	mov    %eax,%ebx
  40108e:	85 ed                	test   %ebp,%ebp
  401090:	74 18                	je     4010aa <initialize_target+0x7a>
  401092:	bf 00 00 00 00       	mov    $0x0,%edi
  401097:	e8 14 fd ff ff       	callq  400db0 <time@plt>
  40109c:	89 c7                	mov    %eax,%edi
  40109e:	e8 fd fb ff ff       	callq  400ca0 <srandom@plt>
  4010a3:	e8 18 fd ff ff       	callq  400dc0 <random@plt>
  4010a8:	eb 05                	jmp    4010af <initialize_target+0x7f>
  4010aa:	b8 00 00 00 00       	mov    $0x0,%eax
  4010af:	01 c3                	add    %eax,%ebx
  4010b1:	0f b7 db             	movzwl %bx,%ebx
  4010b4:	8d 04 dd 00 01 00 00 	lea    0x100(,%rbx,8),%eax
  4010bb:	89 c0                	mov    %eax,%eax
  4010bd:	48 89 05 dc 43 20 00 	mov    %rax,0x2043dc(%rip)        # 6054a0 <buf_offset>
  4010c4:	c6 05 7d 50 20 00 72 	movb   $0x72,0x20507d(%rip)        # 606148 <target_prefix>
  4010cb:	83 3d d6 43 20 00 00 	cmpl   $0x0,0x2043d6(%rip)        # 6054a8 <notify>
  4010d2:	0f 84 bb 00 00 00    	je     401193 <initialize_target+0x163>
  4010d8:	83 3d 49 44 20 00 00 	cmpl   $0x0,0x204449(%rip)        # 605528 <is_checker>
  4010df:	0f 85 ae 00 00 00    	jne    401193 <initialize_target+0x163>
  4010e5:	be 00 01 00 00       	mov    $0x100,%esi
  4010ea:	48 89 e7             	mov    %rsp,%rdi
  4010ed:	e8 4e fd ff ff       	callq  400e40 <gethostname@plt>
  4010f2:	85 c0                	test   %eax,%eax
  4010f4:	74 25                	je     40111b <initialize_target+0xeb>
  4010f6:	bf c8 30 40 00       	mov    $0x4030c8,%edi
  4010fb:	e8 d0 fb ff ff       	callq  400cd0 <puts@plt>
  401100:	bf 08 00 00 00       	mov    $0x8,%edi
  401105:	e8 46 fd ff ff       	callq  400e50 <exit@plt>
  40110a:	48 89 e6             	mov    %rsp,%rsi
  40110d:	e8 6e fb ff ff       	callq  400c80 <strcasecmp@plt>
  401112:	85 c0                	test   %eax,%eax
  401114:	74 21                	je     401137 <initialize_target+0x107>
  401116:	83 c3 01             	add    $0x1,%ebx
  401119:	eb 05                	jmp    401120 <initialize_target+0xf0>
  40111b:	bb 00 00 00 00       	mov    $0x0,%ebx
  401120:	48 63 c3             	movslq %ebx,%rax
  401123:	48 8b 3c c5 80 51 60 	mov    0x605180(,%rax,8),%rdi
  40112a:	00 
  40112b:	48 85 ff             	test   %rdi,%rdi
  40112e:	75 da                	jne    40110a <initialize_target+0xda>
  401130:	b8 00 00 00 00       	mov    $0x0,%eax
  401135:	eb 05                	jmp    40113c <initialize_target+0x10c>
  401137:	b8 01 00 00 00       	mov    $0x1,%eax
  40113c:	85 c0                	test   %eax,%eax
  40113e:	75 1c                	jne    40115c <initialize_target+0x12c>
  401140:	48 89 e2             	mov    %rsp,%rdx
  401143:	be 00 31 40 00       	mov    $0x403100,%esi
  401148:	bf 01 00 00 00       	mov    $0x1,%edi
  40114d:	e8 ae fc ff ff       	callq  400e00 <__printf_chk@plt>
  401152:	bf 08 00 00 00       	mov    $0x8,%edi
  401157:	e8 f4 fc ff ff       	callq  400e50 <exit@plt>
  40115c:	48 8d bc 24 00 01 00 	lea    0x100(%rsp),%rdi
  401163:	00 
  401164:	e8 36 1b 00 00       	callq  402c9f <init_driver>
  401169:	85 c0                	test   %eax,%eax
  40116b:	79 26                	jns    401193 <initialize_target+0x163>
  40116d:	48 8d 94 24 00 01 00 	lea    0x100(%rsp),%rdx
  401174:	00 
  401175:	be 40 31 40 00       	mov    $0x403140,%esi
  40117a:	bf 01 00 00 00       	mov    $0x1,%edi
  40117f:	b8 00 00 00 00       	mov    $0x0,%eax
  401184:	e8 77 fc ff ff       	callq  400e00 <__printf_chk@plt>
  401189:	bf 08 00 00 00       	mov    $0x8,%edi
  40118e:	e8 bd fc ff ff       	callq  400e50 <exit@plt>
  401193:	48 8b 84 24 08 21 00 	mov    0x2108(%rsp),%rax
  40119a:	00 
  40119b:	64 48 33 04 25 28 00 	xor    %fs:0x28,%rax
  4011a2:	00 00 
  4011a4:	74 05                	je     4011ab <initialize_target+0x17b>
  4011a6:	e8 45 fb ff ff       	callq  400cf0 <__stack_chk_fail@plt>
  4011ab:	48 81 c4 18 21 00 00 	add    $0x2118,%rsp
  4011b2:	5b                   	pop    %rbx
  4011b3:	5d                   	pop    %rbp
  4011b4:	c3                   	retq   

00000000004011b5 <main>:
  4011b5:	41 56                	push   %r14
  4011b7:	41 55                	push   %r13
  4011b9:	41 54                	push   %r12
  4011bb:	55                   	push   %rbp
  4011bc:	53                   	push   %rbx
  4011bd:	41 89 fc             	mov    %edi,%r12d
  4011c0:	48 89 f3             	mov    %rsi,%rbx
  4011c3:	be da 1f 40 00       	mov    $0x401fda,%esi
  4011c8:	bf 0b 00 00 00       	mov    $0xb,%edi
  4011cd:	e8 8e fb ff ff       	callq  400d60 <signal@plt>
  4011d2:	be 8c 1f 40 00       	mov    $0x401f8c,%esi
  4011d7:	bf 07 00 00 00       	mov    $0x7,%edi
  4011dc:	e8 7f fb ff ff       	callq  400d60 <signal@plt>
  4011e1:	be 28 20 40 00       	mov    $0x402028,%esi
  4011e6:	bf 04 00 00 00       	mov    $0x4,%edi
  4011eb:	e8 70 fb ff ff       	callq  400d60 <signal@plt>
  4011f0:	83 3d 31 43 20 00 00 	cmpl   $0x0,0x204331(%rip)        # 605528 <is_checker>
  4011f7:	74 20                	je     401219 <main+0x64>
  4011f9:	be 76 20 40 00       	mov    $0x402076,%esi
  4011fe:	bf 0e 00 00 00       	mov    $0xe,%edi
  401203:	e8 58 fb ff ff       	callq  400d60 <signal@plt>
  401208:	bf 05 00 00 00       	mov    $0x5,%edi
  40120d:	e8 0e fb ff ff       	callq  400d20 <alarm@plt>
  401212:	bd 0a 32 40 00       	mov    $0x40320a,%ebp
  401217:	eb 05                	jmp    40121e <main+0x69>
  401219:	bd 05 32 40 00       	mov    $0x403205,%ebp
  40121e:	48 8b 05 9b 42 20 00 	mov    0x20429b(%rip),%rax        # 6054c0 <stdin@@GLIBC_2.2.5>
  401225:	48 89 05 e4 42 20 00 	mov    %rax,0x2042e4(%rip)        # 605510 <infile>
  40122c:	41 bd 00 00 00 00    	mov    $0x0,%r13d
  401232:	41 be 00 00 00 00    	mov    $0x0,%r14d
  401238:	e9 c6 00 00 00       	jmpq   401303 <main+0x14e>
  40123d:	83 e8 61             	sub    $0x61,%eax
  401240:	3c 10                	cmp    $0x10,%al
  401242:	0f 87 9c 00 00 00    	ja     4012e4 <main+0x12f>
  401248:	0f b6 c0             	movzbl %al,%eax
  40124b:	ff 24 c5 50 32 40 00 	jmpq   *0x403250(,%rax,8)
  401252:	48 8b 3b             	mov    (%rbx),%rdi
  401255:	e8 4c fd ff ff       	callq  400fa6 <usage>
  40125a:	be ed 35 40 00       	mov    $0x4035ed,%esi
  40125f:	48 8b 3d 62 42 20 00 	mov    0x204262(%rip),%rdi        # 6054c8 <optarg@@GLIBC_2.2.5>
  401266:	e8 a5 fb ff ff       	callq  400e10 <fopen@plt>
  40126b:	48 89 05 9e 42 20 00 	mov    %rax,0x20429e(%rip)        # 605510 <infile>
  401272:	48 85 c0             	test   %rax,%rax
  401275:	0f 85 88 00 00 00    	jne    401303 <main+0x14e>
  40127b:	48 8b 0d 46 42 20 00 	mov    0x204246(%rip),%rcx        # 6054c8 <optarg@@GLIBC_2.2.5>
  401282:	ba 12 32 40 00       	mov    $0x403212,%edx
  401287:	be 01 00 00 00       	mov    $0x1,%esi
  40128c:	48 8b 3d 4d 42 20 00 	mov    0x20424d(%rip),%rdi        # 6054e0 <stderr@@GLIBC_2.2.5>
  401293:	e8 d8 fb ff ff       	callq  400e70 <__fprintf_chk@plt>
  401298:	b8 01 00 00 00       	mov    $0x1,%eax
  40129d:	e9 e4 00 00 00       	jmpq   401386 <main+0x1d1>
  4012a2:	ba 10 00 00 00       	mov    $0x10,%edx
  4012a7:	be 00 00 00 00       	mov    $0x0,%esi
  4012ac:	48 8b 3d 15 42 20 00 	mov    0x204215(%rip),%rdi        # 6054c8 <optarg@@GLIBC_2.2.5>
  4012b3:	e8 78 fb ff ff       	callq  400e30 <strtoul@plt>
  4012b8:	41 89 c6             	mov    %eax,%r14d
  4012bb:	eb 46                	jmp    401303 <main+0x14e>
  4012bd:	ba 0a 00 00 00       	mov    $0xa,%edx
  4012c2:	be 00 00 00 00       	mov    $0x0,%esi
  4012c7:	48 8b 3d fa 41 20 00 	mov    0x2041fa(%rip),%rdi        # 6054c8 <optarg@@GLIBC_2.2.5>
  4012ce:	e8 bd fa ff ff       	callq  400d90 <strtol@plt>
  4012d3:	41 89 c5             	mov    %eax,%r13d
  4012d6:	eb 2b                	jmp    401303 <main+0x14e>
  4012d8:	c7 05 c6 41 20 00 00 	movl   $0x0,0x2041c6(%rip)        # 6054a8 <notify>
  4012df:	00 00 00 
  4012e2:	eb 1f                	jmp    401303 <main+0x14e>
  4012e4:	0f be d2             	movsbl %dl,%edx
  4012e7:	be 2f 32 40 00       	mov    $0x40322f,%esi
  4012ec:	bf 01 00 00 00       	mov    $0x1,%edi
  4012f1:	b8 00 00 00 00       	mov    $0x0,%eax
  4012f6:	e8 05 fb ff ff       	callq  400e00 <__printf_chk@plt>
  4012fb:	48 8b 3b             	mov    (%rbx),%rdi
  4012fe:	e8 a3 fc ff ff       	callq  400fa6 <usage>
  401303:	48 89 ea             	mov    %rbp,%rdx
  401306:	48 89 de             	mov    %rbx,%rsi
  401309:	44 89 e7             	mov    %r12d,%edi
  40130c:	e8 0f fb ff ff       	callq  400e20 <getopt@plt>
  401311:	89 c2                	mov    %eax,%edx
  401313:	3c ff                	cmp    $0xff,%al
  401315:	0f 85 22 ff ff ff    	jne    40123d <main+0x88>
  40131b:	be 01 00 00 00       	mov    $0x1,%esi
  401320:	44 89 ef             	mov    %r13d,%edi
  401323:	e8 08 fd ff ff       	callq  401030 <initialize_target>
  401328:	83 3d f9 41 20 00 00 	cmpl   $0x0,0x2041f9(%rip)        # 605528 <is_checker>
  40132f:	74 2a                	je     40135b <main+0x1a6>
  401331:	44 3b 35 e8 41 20 00 	cmp    0x2041e8(%rip),%r14d        # 605520 <authkey>
  401338:	74 21                	je     40135b <main+0x1a6>
  40133a:	44 89 f2             	mov    %r14d,%edx
  40133d:	be 68 31 40 00       	mov    $0x403168,%esi
  401342:	bf 01 00 00 00       	mov    $0x1,%edi
  401347:	b8 00 00 00 00       	mov    $0x0,%eax
  40134c:	e8 af fa ff ff       	callq  400e00 <__printf_chk@plt>
  401351:	b8 00 00 00 00       	mov    $0x0,%eax
  401356:	e8 cd 08 00 00       	callq  401c28 <check_fail>
  40135b:	8b 15 c3 41 20 00    	mov    0x2041c3(%rip),%edx        # 605524 <cookie>
  401361:	be 42 32 40 00       	mov    $0x403242,%esi
  401366:	bf 01 00 00 00       	mov    $0x1,%edi
  40136b:	b8 00 00 00 00       	mov    $0x0,%eax
  401370:	e8 8b fa ff ff       	callq  400e00 <__printf_chk@plt>
  401375:	48 8b 3d 24 41 20 00 	mov    0x204124(%rip),%rdi        # 6054a0 <buf_offset>
  40137c:	e8 48 0d 00 00       	callq  4020c9 <launch>
  401381:	b8 00 00 00 00       	mov    $0x0,%eax
  401386:	5b                   	pop    %rbx
  401387:	5d                   	pop    %rbp
  401388:	41 5c                	pop    %r12
  40138a:	41 5d                	pop    %r13
  40138c:	41 5e                	pop    %r14
  40138e:	c3                   	retq   

000000000040138f <scramble>:
  40138f:	48 83 ec 38          	sub    $0x38,%rsp
  401393:	64 48 8b 04 25 28 00 	mov    %fs:0x28,%rax
  40139a:	00 00 
  40139c:	48 89 44 24 28       	mov    %rax,0x28(%rsp)
  4013a1:	31 c0                	xor    %eax,%eax
  4013a3:	eb 10                	jmp    4013b5 <scramble+0x26>
  4013a5:	69 d0 72 ac 00 00    	imul   $0xac72,%eax,%edx
  4013ab:	01 fa                	add    %edi,%edx
  4013ad:	89 c1                	mov    %eax,%ecx
  4013af:	89 14 8c             	mov    %edx,(%rsp,%rcx,4)
  4013b2:	83 c0 01             	add    $0x1,%eax
  4013b5:	83 f8 09             	cmp    $0x9,%eax
  4013b8:	76 eb                	jbe    4013a5 <scramble+0x16>
  4013ba:	8b 44 24 20          	mov    0x20(%rsp),%eax
  4013be:	69 c0 5b f7 00 00    	imul   $0xf75b,%eax,%eax
  4013c4:	89 44 24 20          	mov    %eax,0x20(%rsp)
  4013c8:	8b 04 24             	mov    (%rsp),%eax
  4013cb:	69 c0 74 39 00 00    	imul   $0x3974,%eax,%eax
  4013d1:	89 04 24             	mov    %eax,(%rsp)
  4013d4:	8b 44 24 0c          	mov    0xc(%rsp),%eax
  4013d8:	69 c0 ac 30 00 00    	imul   $0x30ac,%eax,%eax
  4013de:	89 44 24 0c          	mov    %eax,0xc(%rsp)
  4013e2:	8b 44 24 24          	mov    0x24(%rsp),%eax
  4013e6:	69 c0 6e 4e 00 00    	imul   $0x4e6e,%eax,%eax
  4013ec:	89 44 24 24          	mov    %eax,0x24(%rsp)
  4013f0:	8b 44 24 04          	mov    0x4(%rsp),%eax
  4013f4:	69 c0 34 2a 00 00    	imul   $0x2a34,%eax,%eax
  4013fa:	89 44 24 04          	mov    %eax,0x4(%rsp)
  4013fe:	8b 44 24 20          	mov    0x20(%rsp),%eax
  401402:	69 c0 be 6c 00 00    	imul   $0x6cbe,%eax,%eax
  401408:	89 44 24 20          	mov    %eax,0x20(%rsp)
  40140c:	8b 44 24 18          	mov    0x18(%rsp),%eax
  401410:	69 c0 60 e8 00 00    	imul   $0xe860,%eax,%eax
  401416:	89 44 24 18          	mov    %eax,0x18(%rsp)
  40141a:	8b 44 24 14          	mov    0x14(%rsp),%eax
  40141e:	69 c0 6a 62 00 00    	imul   $0x626a,%eax,%eax
  401424:	89 44 24 14          	mov    %eax,0x14(%rsp)
  401428:	8b 04 24             	mov    (%rsp),%eax
  40142b:	69 c0 98 75 00 00    	imul   $0x7598,%eax,%eax
  401431:	89 04 24             	mov    %eax,(%rsp)
  401434:	8b 44 24 20          	mov    0x20(%rsp),%eax
  401438:	69 c0 68 2a 00 00    	imul   $0x2a68,%eax,%eax
  40143e:	89 44 24 20          	mov    %eax,0x20(%rsp)
  401442:	8b 44 24 0c          	mov    0xc(%rsp),%eax
  401446:	69 c0 ee ba 00 00    	imul   $0xbaee,%eax,%eax
  40144c:	89 44 24 0c          	mov    %eax,0xc(%rsp)
  401450:	8b 44 24 10          	mov    0x10(%rsp),%eax
  401454:	69 c0 a8 66 00 00    	imul   $0x66a8,%eax,%eax
  40145a:	89 44 24 10          	mov    %eax,0x10(%rsp)
  40145e:	8b 44 24 04          	mov    0x4(%rsp),%eax
  401462:	69 c0 b5 a4 00 00    	imul   $0xa4b5,%eax,%eax
  401468:	89 44 24 04          	mov    %eax,0x4(%rsp)
  40146c:	8b 44 24 20          	mov    0x20(%rsp),%eax
  401470:	69 c0 c9 95 00 00    	imul   $0x95c9,%eax,%eax
  401476:	89 44 24 20          	mov    %eax,0x20(%rsp)
  40147a:	8b 44 24 20          	mov    0x20(%rsp),%eax
  40147e:	69 c0 7b 49 00 00    	imul   $0x497b,%eax,%eax
  401484:	89 44 24 20          	mov    %eax,0x20(%rsp)
  401488:	8b 44 24 1c          	mov    0x1c(%rsp),%eax
  40148c:	69 c0 94 22 00 00    	imul   $0x2294,%eax,%eax
  401492:	89 44 24 1c          	mov    %eax,0x1c(%rsp)
  401496:	8b 44 24 08          	mov    0x8(%rsp),%eax
  40149a:	69 c0 bc 56 00 00    	imul   $0x56bc,%eax,%eax
  4014a0:	89 44 24 08          	mov    %eax,0x8(%rsp)
  4014a4:	8b 44 24 18          	mov    0x18(%rsp),%eax
  4014a8:	69 c0 05 17 00 00    	imul   $0x1705,%eax,%eax
  4014ae:	89 44 24 18          	mov    %eax,0x18(%rsp)
  4014b2:	8b 44 24 14          	mov    0x14(%rsp),%eax
  4014b6:	69 c0 5d b2 00 00    	imul   $0xb25d,%eax,%eax
  4014bc:	89 44 24 14          	mov    %eax,0x14(%rsp)
  4014c0:	8b 44 24 24          	mov    0x24(%rsp),%eax
  4014c4:	69 c0 c2 b0 00 00    	imul   $0xb0c2,%eax,%eax
  4014ca:	89 44 24 24          	mov    %eax,0x24(%rsp)
  4014ce:	8b 44 24 08          	mov    0x8(%rsp),%eax
  4014d2:	69 c0 de c4 00 00    	imul   $0xc4de,%eax,%eax
  4014d8:	89 44 24 08          	mov    %eax,0x8(%rsp)
  4014dc:	8b 44 24 0c          	mov    0xc(%rsp),%eax
  4014e0:	69 c0 b1 92 00 00    	imul   $0x92b1,%eax,%eax
  4014e6:	89 44 24 0c          	mov    %eax,0xc(%rsp)
  4014ea:	8b 44 24 24          	mov    0x24(%rsp),%eax
  4014ee:	69 c0 5c d9 00 00    	imul   $0xd95c,%eax,%eax
  4014f4:	89 44 24 24          	mov    %eax,0x24(%rsp)
  4014f8:	8b 44 24 04          	mov    0x4(%rsp),%eax
  4014fc:	69 c0 86 08 00 00    	imul   $0x886,%eax,%eax
  401502:	89 44 24 04          	mov    %eax,0x4(%rsp)
  401506:	8b 44 24 18          	mov    0x18(%rsp),%eax
  40150a:	69 c0 50 a5 00 00    	imul   $0xa550,%eax,%eax
  401510:	89 44 24 18          	mov    %eax,0x18(%rsp)
  401514:	8b 44 24 10          	mov    0x10(%rsp),%eax
  401518:	69 c0 21 f4 00 00    	imul   $0xf421,%eax,%eax
  40151e:	89 44 24 10          	mov    %eax,0x10(%rsp)
  401522:	8b 44 24 04          	mov    0x4(%rsp),%eax
  401526:	69 c0 f5 9a 00 00    	imul   $0x9af5,%eax,%eax
  40152c:	89 44 24 04          	mov    %eax,0x4(%rsp)
  401530:	8b 44 24 0c          	mov    0xc(%rsp),%eax
  401534:	69 c0 99 a5 00 00    	imul   $0xa599,%eax,%eax
  40153a:	89 44 24 0c          	mov    %eax,0xc(%rsp)
  40153e:	8b 44 24 08          	mov    0x8(%rsp),%eax
  401542:	69 c0 4c 66 00 00    	imul   $0x664c,%eax,%eax
  401548:	89 44 24 08          	mov    %eax,0x8(%rsp)
  40154c:	8b 44 24 14          	mov    0x14(%rsp),%eax
  401550:	69 c0 cd b5 00 00    	imul   $0xb5cd,%eax,%eax
  401556:	89 44 24 14          	mov    %eax,0x14(%rsp)
  40155a:	8b 44 24 24          	mov    0x24(%rsp),%eax
  40155e:	69 c0 ce 82 00 00    	imul   $0x82ce,%eax,%eax
  401564:	89 44 24 24          	mov    %eax,0x24(%rsp)
  401568:	8b 44 24 20          	mov    0x20(%rsp),%eax
  40156c:	69 c0 9e f0 00 00    	imul   $0xf09e,%eax,%eax
  401572:	89 44 24 20          	mov    %eax,0x20(%rsp)
  401576:	8b 44 24 0c          	mov    0xc(%rsp),%eax
  40157a:	69 c0 69 34 00 00    	imul   $0x3469,%eax,%eax
  401580:	89 44 24 0c          	mov    %eax,0xc(%rsp)
  401584:	8b 44 24 18          	mov    0x18(%rsp),%eax
  401588:	69 c0 f2 60 00 00    	imul   $0x60f2,%eax,%eax
  40158e:	89 44 24 18          	mov    %eax,0x18(%rsp)
  401592:	8b 44 24 10          	mov    0x10(%rsp),%eax
  401596:	69 c0 16 6d 00 00    	imul   $0x6d16,%eax,%eax
  40159c:	89 44 24 10          	mov    %eax,0x10(%rsp)
  4015a0:	8b 44 24 24          	mov    0x24(%rsp),%eax
  4015a4:	69 c0 57 c3 00 00    	imul   $0xc357,%eax,%eax
  4015aa:	89 44 24 24          	mov    %eax,0x24(%rsp)
  4015ae:	8b 44 24 18          	mov    0x18(%rsp),%eax
  4015b2:	69 c0 35 2f 00 00    	imul   $0x2f35,%eax,%eax
  4015b8:	89 44 24 18          	mov    %eax,0x18(%rsp)
  4015bc:	8b 44 24 24          	mov    0x24(%rsp),%eax
  4015c0:	69 c0 34 df 00 00    	imul   $0xdf34,%eax,%eax
  4015c6:	89 44 24 24          	mov    %eax,0x24(%rsp)
  4015ca:	8b 44 24 08          	mov    0x8(%rsp),%eax
  4015ce:	69 c0 23 4b 00 00    	imul   $0x4b23,%eax,%eax
  4015d4:	89 44 24 08          	mov    %eax,0x8(%rsp)
  4015d8:	8b 44 24 1c          	mov    0x1c(%rsp),%eax
  4015dc:	69 c0 86 57 00 00    	imul   $0x5786,%eax,%eax
  4015e2:	89 44 24 1c          	mov    %eax,0x1c(%rsp)
  4015e6:	8b 44 24 04          	mov    0x4(%rsp),%eax
  4015ea:	69 c0 a9 1a 00 00    	imul   $0x1aa9,%eax,%eax
  4015f0:	89 44 24 04          	mov    %eax,0x4(%rsp)
  4015f4:	8b 04 24             	mov    (%rsp),%eax
  4015f7:	69 c0 b2 50 00 00    	imul   $0x50b2,%eax,%eax
  4015fd:	89 04 24             	mov    %eax,(%rsp)
  401600:	8b 44 24 14          	mov    0x14(%rsp),%eax
  401604:	69 c0 70 a6 00 00    	imul   $0xa670,%eax,%eax
  40160a:	89 44 24 14          	mov    %eax,0x14(%rsp)
  40160e:	8b 44 24 18          	mov    0x18(%rsp),%eax
  401612:	69 c0 49 f5 00 00    	imul   $0xf549,%eax,%eax
  401618:	89 44 24 18          	mov    %eax,0x18(%rsp)
  40161c:	8b 44 24 20          	mov    0x20(%rsp),%eax
  401620:	69 c0 ad 31 00 00    	imul   $0x31ad,%eax,%eax
  401626:	89 44 24 20          	mov    %eax,0x20(%rsp)
  40162a:	8b 44 24 24          	mov    0x24(%rsp),%eax
  40162e:	69 c0 84 bc 00 00    	imul   $0xbc84,%eax,%eax
  401634:	89 44 24 24          	mov    %eax,0x24(%rsp)
  401638:	8b 44 24 18          	mov    0x18(%rsp),%eax
  40163c:	69 c0 77 83 00 00    	imul   $0x8377,%eax,%eax
  401642:	89 44 24 18          	mov    %eax,0x18(%rsp)
  401646:	8b 04 24             	mov    (%rsp),%eax
  401649:	69 c0 05 8e 00 00    	imul   $0x8e05,%eax,%eax
  40164f:	89 04 24             	mov    %eax,(%rsp)
  401652:	8b 44 24 14          	mov    0x14(%rsp),%eax
  401656:	69 c0 c6 b4 00 00    	imul   $0xb4c6,%eax,%eax
  40165c:	89 44 24 14          	mov    %eax,0x14(%rsp)
  401660:	8b 44 24 08          	mov    0x8(%rsp),%eax
  401664:	69 c0 a6 9e 00 00    	imul   $0x9ea6,%eax,%eax
  40166a:	89 44 24 08          	mov    %eax,0x8(%rsp)
  40166e:	8b 44 24 14          	mov    0x14(%rsp),%eax
  401672:	69 c0 ac 00 00 00    	imul   $0xac,%eax,%eax
  401678:	89 44 24 14          	mov    %eax,0x14(%rsp)
  40167c:	8b 44 24 24          	mov    0x24(%rsp),%eax
  401680:	69 c0 d1 53 00 00    	imul   $0x53d1,%eax,%eax
  401686:	89 44 24 24          	mov    %eax,0x24(%rsp)
  40168a:	8b 44 24 14          	mov    0x14(%rsp),%eax
  40168e:	69 c0 05 b8 00 00    	imul   $0xb805,%eax,%eax
  401694:	89 44 24 14          	mov    %eax,0x14(%rsp)
  401698:	8b 44 24 24          	mov    0x24(%rsp),%eax
  40169c:	69 c0 72 38 00 00    	imul   $0x3872,%eax,%eax
  4016a2:	89 44 24 24          	mov    %eax,0x24(%rsp)
  4016a6:	8b 44 24 04          	mov    0x4(%rsp),%eax
  4016aa:	69 c0 c0 1a 00 00    	imul   $0x1ac0,%eax,%eax
  4016b0:	89 44 24 04          	mov    %eax,0x4(%rsp)
  4016b4:	8b 44 24 1c          	mov    0x1c(%rsp),%eax
  4016b8:	69 c0 9c f3 00 00    	imul   $0xf39c,%eax,%eax
  4016be:	89 44 24 1c          	mov    %eax,0x1c(%rsp)
  4016c2:	8b 44 24 08          	mov    0x8(%rsp),%eax
  4016c6:	69 c0 a0 db 00 00    	imul   $0xdba0,%eax,%eax
  4016cc:	89 44 24 08          	mov    %eax,0x8(%rsp)
  4016d0:	8b 44 24 1c          	mov    0x1c(%rsp),%eax
  4016d4:	69 c0 07 eb 00 00    	imul   $0xeb07,%eax,%eax
  4016da:	89 44 24 1c          	mov    %eax,0x1c(%rsp)
  4016de:	8b 44 24 0c          	mov    0xc(%rsp),%eax
  4016e2:	69 c0 99 3a 00 00    	imul   $0x3a99,%eax,%eax
  4016e8:	89 44 24 0c          	mov    %eax,0xc(%rsp)
  4016ec:	8b 44 24 18          	mov    0x18(%rsp),%eax
  4016f0:	69 c0 cd 8e 00 00    	imul   $0x8ecd,%eax,%eax
  4016f6:	89 44 24 18          	mov    %eax,0x18(%rsp)
  4016fa:	8b 44 24 1c          	mov    0x1c(%rsp),%eax
  4016fe:	69 c0 67 8b 00 00    	imul   $0x8b67,%eax,%eax
  401704:	89 44 24 1c          	mov    %eax,0x1c(%rsp)
  401708:	8b 44 24 04          	mov    0x4(%rsp),%eax
  40170c:	69 c0 c1 20 00 00    	imul   $0x20c1,%eax,%eax
  401712:	89 44 24 04          	mov    %eax,0x4(%rsp)
  401716:	8b 44 24 10          	mov    0x10(%rsp),%eax
  40171a:	69 c0 74 f8 00 00    	imul   $0xf874,%eax,%eax
  401720:	89 44 24 10          	mov    %eax,0x10(%rsp)
  401724:	8b 04 24             	mov    (%rsp),%eax
  401727:	69 c0 bf c6 00 00    	imul   $0xc6bf,%eax,%eax
  40172d:	89 04 24             	mov    %eax,(%rsp)
  401730:	8b 44 24 10          	mov    0x10(%rsp),%eax
  401734:	69 c0 be 9d 00 00    	imul   $0x9dbe,%eax,%eax
  40173a:	89 44 24 10          	mov    %eax,0x10(%rsp)
  40173e:	8b 44 24 08          	mov    0x8(%rsp),%eax
  401742:	69 c0 16 cf 00 00    	imul   $0xcf16,%eax,%eax
  401748:	89 44 24 08          	mov    %eax,0x8(%rsp)
  40174c:	8b 44 24 18          	mov    0x18(%rsp),%eax
  401750:	69 c0 63 c7 00 00    	imul   $0xc763,%eax,%eax
  401756:	89 44 24 18          	mov    %eax,0x18(%rsp)
  40175a:	8b 44 24 14          	mov    0x14(%rsp),%eax
  40175e:	69 c0 4b ce 00 00    	imul   $0xce4b,%eax,%eax
  401764:	89 44 24 14          	mov    %eax,0x14(%rsp)
  401768:	8b 44 24 0c          	mov    0xc(%rsp),%eax
  40176c:	69 c0 ed 55 00 00    	imul   $0x55ed,%eax,%eax
  401772:	89 44 24 0c          	mov    %eax,0xc(%rsp)
  401776:	8b 44 24 04          	mov    0x4(%rsp),%eax
  40177a:	69 c0 92 82 00 00    	imul   $0x8292,%eax,%eax
  401780:	89 44 24 04          	mov    %eax,0x4(%rsp)
  401784:	8b 44 24 08          	mov    0x8(%rsp),%eax
  401788:	69 c0 b6 96 00 00    	imul   $0x96b6,%eax,%eax
  40178e:	89 44 24 08          	mov    %eax,0x8(%rsp)
  401792:	8b 44 24 24          	mov    0x24(%rsp),%eax
  401796:	69 c0 16 a6 00 00    	imul   $0xa616,%eax,%eax
  40179c:	89 44 24 24          	mov    %eax,0x24(%rsp)
  4017a0:	8b 04 24             	mov    (%rsp),%eax
  4017a3:	69 c0 7d ba 00 00    	imul   $0xba7d,%eax,%eax
  4017a9:	89 04 24             	mov    %eax,(%rsp)
  4017ac:	8b 44 24 10          	mov    0x10(%rsp),%eax
  4017b0:	69 c0 68 f4 00 00    	imul   $0xf468,%eax,%eax
  4017b6:	89 44 24 10          	mov    %eax,0x10(%rsp)
  4017ba:	8b 44 24 0c          	mov    0xc(%rsp),%eax
  4017be:	69 c0 6f 71 00 00    	imul   $0x716f,%eax,%eax
  4017c4:	89 44 24 0c          	mov    %eax,0xc(%rsp)
  4017c8:	8b 44 24 18          	mov    0x18(%rsp),%eax
  4017cc:	69 c0 5d 61 00 00    	imul   $0x615d,%eax,%eax
  4017d2:	89 44 24 18          	mov    %eax,0x18(%rsp)
  4017d6:	8b 44 24 20          	mov    0x20(%rsp),%eax
  4017da:	69 c0 87 ce 00 00    	imul   $0xce87,%eax,%eax
  4017e0:	89 44 24 20          	mov    %eax,0x20(%rsp)
  4017e4:	8b 44 24 24          	mov    0x24(%rsp),%eax
  4017e8:	69 c0 b5 0b 00 00    	imul   $0xbb5,%eax,%eax
  4017ee:	89 44 24 24          	mov    %eax,0x24(%rsp)
  4017f2:	8b 44 24 14          	mov    0x14(%rsp),%eax
  4017f6:	69 c0 e5 30 00 00    	imul   $0x30e5,%eax,%eax
  4017fc:	89 44 24 14          	mov    %eax,0x14(%rsp)
  401800:	8b 44 24 1c          	mov    0x1c(%rsp),%eax
  401804:	69 c0 35 74 00 00    	imul   $0x7435,%eax,%eax
  40180a:	89 44 24 1c          	mov    %eax,0x1c(%rsp)
  40180e:	8b 44 24 14          	mov    0x14(%rsp),%eax
  401812:	69 c0 db 37 00 00    	imul   $0x37db,%eax,%eax
  401818:	89 44 24 14          	mov    %eax,0x14(%rsp)
  40181c:	8b 04 24             	mov    (%rsp),%eax
  40181f:	69 c0 0d 6d 00 00    	imul   $0x6d0d,%eax,%eax
  401825:	89 04 24             	mov    %eax,(%rsp)
  401828:	8b 44 24 10          	mov    0x10(%rsp),%eax
  40182c:	69 c0 33 66 00 00    	imul   $0x6633,%eax,%eax
  401832:	89 44 24 10          	mov    %eax,0x10(%rsp)
  401836:	8b 44 24 1c          	mov    0x1c(%rsp),%eax
  40183a:	69 c0 a7 7e 00 00    	imul   $0x7ea7,%eax,%eax
  401840:	89 44 24 1c          	mov    %eax,0x1c(%rsp)
  401844:	8b 44 24 04          	mov    0x4(%rsp),%eax
  401848:	69 c0 15 42 00 00    	imul   $0x4215,%eax,%eax
  40184e:	89 44 24 04          	mov    %eax,0x4(%rsp)
  401852:	8b 44 24 10          	mov    0x10(%rsp),%eax
  401856:	69 c0 ce 2c 00 00    	imul   $0x2cce,%eax,%eax
  40185c:	89 44 24 10          	mov    %eax,0x10(%rsp)
  401860:	8b 44 24 24          	mov    0x24(%rsp),%eax
  401864:	69 c0 68 77 00 00    	imul   $0x7768,%eax,%eax
  40186a:	89 44 24 24          	mov    %eax,0x24(%rsp)
  40186e:	8b 44 24 0c          	mov    0xc(%rsp),%eax
  401872:	69 c0 23 4b 00 00    	imul   $0x4b23,%eax,%eax
  401878:	89 44 24 0c          	mov    %eax,0xc(%rsp)
  40187c:	ba 00 00 00 00       	mov    $0x0,%edx
  401881:	b8 00 00 00 00       	mov    $0x0,%eax
  401886:	eb 0a                	jmp    401892 <scramble+0x503>
  401888:	89 d1                	mov    %edx,%ecx
  40188a:	8b 0c 8c             	mov    (%rsp,%rcx,4),%ecx
  40188d:	01 c8                	add    %ecx,%eax
  40188f:	83 c2 01             	add    $0x1,%edx
  401892:	83 fa 09             	cmp    $0x9,%edx
  401895:	76 f1                	jbe    401888 <scramble+0x4f9>
  401897:	48 8b 74 24 28       	mov    0x28(%rsp),%rsi
  40189c:	64 48 33 34 25 28 00 	xor    %fs:0x28,%rsi
  4018a3:	00 00 
  4018a5:	74 05                	je     4018ac <scramble+0x51d>
  4018a7:	e8 44 f4 ff ff       	callq  400cf0 <__stack_chk_fail@plt>
  4018ac:	48 83 c4 38          	add    $0x38,%rsp
  4018b0:	c3                   	retq   

00000000004018b1 <getbuf>:
  4018b1:	48 83 ec 28          	sub    $0x28,%rsp
  4018b5:	48 89 e7             	mov    %rsp,%rdi
  4018b8:	e8 a0 03 00 00       	callq  401c5d <Gets>
  4018bd:	b8 01 00 00 00       	mov    $0x1,%eax
  4018c2:	48 83 c4 28          	add    $0x28,%rsp
  4018c6:	c3                   	retq   

00000000004018c7 <touch1>:
  4018c7:	48 83 ec 08          	sub    $0x8,%rsp
  4018cb:	c7 05 47 3c 20 00 01 	movl   $0x1,0x203c47(%rip)        # 60551c <vlevel>
  4018d2:	00 00 00 
  4018d5:	bf 43 34 40 00       	mov    $0x403443,%edi
  4018da:	e8 f1 f3 ff ff       	callq  400cd0 <puts@plt>
  4018df:	bf 01 00 00 00       	mov    $0x1,%edi
  4018e4:	e8 b9 05 00 00       	callq  401ea2 <validate>
  4018e9:	bf 00 00 00 00       	mov    $0x0,%edi
  4018ee:	e8 5d f5 ff ff       	callq  400e50 <exit@plt>

00000000004018f3 <touch2>:
  4018f3:	48 83 ec 08          	sub    $0x8,%rsp
  4018f7:	89 fa                	mov    %edi,%edx
  4018f9:	c7 05 19 3c 20 00 02 	movl   $0x2,0x203c19(%rip)        # 60551c <vlevel>
  401900:	00 00 00 
  401903:	39 3d 1b 3c 20 00    	cmp    %edi,0x203c1b(%rip)        # 605524 <cookie>
  401909:	75 20                	jne    40192b <touch2+0x38>
  40190b:	be 68 34 40 00       	mov    $0x403468,%esi
  401910:	bf 01 00 00 00       	mov    $0x1,%edi
  401915:	b8 00 00 00 00       	mov    $0x0,%eax
  40191a:	e8 e1 f4 ff ff       	callq  400e00 <__printf_chk@plt>
  40191f:	bf 02 00 00 00       	mov    $0x2,%edi
  401924:	e8 79 05 00 00       	callq  401ea2 <validate>
  401929:	eb 1e                	jmp    401949 <touch2+0x56>
  40192b:	be 90 34 40 00       	mov    $0x403490,%esi
  401930:	bf 01 00 00 00       	mov    $0x1,%edi
  401935:	b8 00 00 00 00       	mov    $0x0,%eax
  40193a:	e8 c1 f4 ff ff       	callq  400e00 <__printf_chk@plt>
  40193f:	bf 02 00 00 00       	mov    $0x2,%edi
  401944:	e8 1b 06 00 00       	callq  401f64 <fail>
  401949:	bf 00 00 00 00       	mov    $0x0,%edi
  40194e:	e8 fd f4 ff ff       	callq  400e50 <exit@plt>

0000000000401953 <hexmatch>:
  401953:	41 54                	push   %r12
  401955:	55                   	push   %rbp
  401956:	53                   	push   %rbx
  401957:	48 83 c4 80          	add    $0xffffffffffffff80,%rsp
  40195b:	89 fd                	mov    %edi,%ebp
  40195d:	48 89 f3             	mov    %rsi,%rbx
  401960:	64 48 8b 04 25 28 00 	mov    %fs:0x28,%rax
  401967:	00 00 
  401969:	48 89 44 24 78       	mov    %rax,0x78(%rsp)
  40196e:	31 c0                	xor    %eax,%eax
  401970:	e8 4b f4 ff ff       	callq  400dc0 <random@plt>
  401975:	48 89 c1             	mov    %rax,%rcx
  401978:	48 ba 0b d7 a3 70 3d 	movabs $0xa3d70a3d70a3d70b,%rdx
  40197f:	0a d7 a3 
  401982:	48 f7 ea             	imul   %rdx
  401985:	48 01 ca             	add    %rcx,%rdx
  401988:	48 c1 fa 06          	sar    $0x6,%rdx
  40198c:	48 89 c8             	mov    %rcx,%rax
  40198f:	48 c1 f8 3f          	sar    $0x3f,%rax
  401993:	48 29 c2             	sub    %rax,%rdx
  401996:	48 8d 04 92          	lea    (%rdx,%rdx,4),%rax
  40199a:	48 8d 14 80          	lea    (%rax,%rax,4),%rdx
  40199e:	48 8d 04 95 00 00 00 	lea    0x0(,%rdx,4),%rax
  4019a5:	00 
  4019a6:	48 29 c1             	sub    %rax,%rcx
  4019a9:	4c 8d 24 0c          	lea    (%rsp,%rcx,1),%r12
  4019ad:	41 89 e8             	mov    %ebp,%r8d
  4019b0:	b9 60 34 40 00       	mov    $0x403460,%ecx
  4019b5:	48 c7 c2 ff ff ff ff 	mov    $0xffffffffffffffff,%rdx
  4019bc:	be 01 00 00 00       	mov    $0x1,%esi
  4019c1:	4c 89 e7             	mov    %r12,%rdi
  4019c4:	b8 00 00 00 00       	mov    $0x0,%eax
  4019c9:	e8 b2 f4 ff ff       	callq  400e80 <__sprintf_chk@plt>
  4019ce:	ba 09 00 00 00       	mov    $0x9,%edx
  4019d3:	4c 89 e6             	mov    %r12,%rsi
  4019d6:	48 89 df             	mov    %rbx,%rdi
  4019d9:	e8 d2 f2 ff ff       	callq  400cb0 <strncmp@plt>
  4019de:	85 c0                	test   %eax,%eax
  4019e0:	0f 94 c0             	sete   %al
  4019e3:	48 8b 5c 24 78       	mov    0x78(%rsp),%rbx
  4019e8:	64 48 33 1c 25 28 00 	xor    %fs:0x28,%rbx
  4019ef:	00 00 
  4019f1:	74 05                	je     4019f8 <hexmatch+0xa5>
  4019f3:	e8 f8 f2 ff ff       	callq  400cf0 <__stack_chk_fail@plt>
  4019f8:	0f b6 c0             	movzbl %al,%eax
  4019fb:	48 83 ec 80          	sub    $0xffffffffffffff80,%rsp
  4019ff:	5b                   	pop    %rbx
  401a00:	5d                   	pop    %rbp
  401a01:	41 5c                	pop    %r12
  401a03:	c3                   	retq   

0000000000401a04 <touch3>:
  401a04:	53                   	push   %rbx
  401a05:	48 89 fb             	mov    %rdi,%rbx
  401a08:	c7 05 0a 3b 20 00 03 	movl   $0x3,0x203b0a(%rip)        # 60551c <vlevel>
  401a0f:	00 00 00 
  401a12:	48 89 fe             	mov    %rdi,%rsi
  401a15:	8b 3d 09 3b 20 00    	mov    0x203b09(%rip),%edi        # 605524 <cookie>
  401a1b:	e8 33 ff ff ff       	callq  401953 <hexmatch>
  401a20:	85 c0                	test   %eax,%eax
  401a22:	74 23                	je     401a47 <touch3+0x43>
  401a24:	48 89 da             	mov    %rbx,%rdx
  401a27:	be b8 34 40 00       	mov    $0x4034b8,%esi
  401a2c:	bf 01 00 00 00       	mov    $0x1,%edi
  401a31:	b8 00 00 00 00       	mov    $0x0,%eax
  401a36:	e8 c5 f3 ff ff       	callq  400e00 <__printf_chk@plt>
  401a3b:	bf 03 00 00 00       	mov    $0x3,%edi
  401a40:	e8 5d 04 00 00       	callq  401ea2 <validate>
  401a45:	eb 21                	jmp    401a68 <touch3+0x64>
  401a47:	48 89 da             	mov    %rbx,%rdx
  401a4a:	be e0 34 40 00       	mov    $0x4034e0,%esi
  401a4f:	bf 01 00 00 00       	mov    $0x1,%edi
  401a54:	b8 00 00 00 00       	mov    $0x0,%eax
  401a59:	e8 a2 f3 ff ff       	callq  400e00 <__printf_chk@plt>
  401a5e:	bf 03 00 00 00       	mov    $0x3,%edi
  401a63:	e8 fc 04 00 00       	callq  401f64 <fail>
  401a68:	bf 00 00 00 00       	mov    $0x0,%edi
  401a6d:	e8 de f3 ff ff       	callq  400e50 <exit@plt>

0000000000401a72 <test>:
  401a72:	48 83 ec 08          	sub    $0x8,%rsp
  401a76:	b8 00 00 00 00       	mov    $0x0,%eax
  401a7b:	e8 31 fe ff ff       	callq  4018b1 <getbuf>
  401a80:	89 c2                	mov    %eax,%edx
  401a82:	be 08 35 40 00       	mov    $0x403508,%esi
  401a87:	bf 01 00 00 00       	mov    $0x1,%edi
  401a8c:	b8 00 00 00 00       	mov    $0x0,%eax
  401a91:	e8 6a f3 ff ff       	callq  400e00 <__printf_chk@plt>
  401a96:	48 83 c4 08          	add    $0x8,%rsp
  401a9a:	c3                   	retq   

0000000000401a9b <start_farm>:
  401a9b:	b8 01 00 00 00       	mov    $0x1,%eax
  401aa0:	c3                   	retq   

0000000000401aa1 <getval_370>:
  401aa1:	b8 48 89 c7 c3       	mov    $0xc3c78948,%eax
  401aa6:	c3                   	retq   

0000000000401aa7 <setval_288>:
  401aa7:	c7 07 48 89 c7 94    	movl   $0x94c78948,(%rdi)
  401aad:	c3                   	retq   

0000000000401aae <getval_396>:
  401aae:	b8 48 89 c7 c3       	mov    $0xc3c78948,%eax
  401ab3:	c3                   	retq   

0000000000401ab4 <getval_363>:
  401ab4:	b8 ff eb 78 c3       	mov    $0xc378ebff,%eax
  401ab9:	c3                   	retq   

0000000000401aba <addval_463>:
  401aba:	8d 87 48 8b c7 90    	lea    -0x6f3874b8(%rdi),%eax
  401ac0:	c3                   	retq   

0000000000401ac1 <addval_272>:
  401ac1:	8d 87 58 c1 ca b4    	lea    -0x4b353ea8(%rdi),%eax
  401ac7:	c3                   	retq   

0000000000401ac8 <setval_406>:
  401ac8:	c7 07 3e 58 90 c3    	movl   $0xc390583e,(%rdi)
  401ace:	c3                   	retq   

0000000000401acf <addval_257>:
  401acf:	8d 87 58 c3 4f 02    	lea    0x24fc358(%rdi),%eax
  401ad5:	c3                   	retq   

0000000000401ad6 <mid_farm>:
  401ad6:	b8 01 00 00 00       	mov    $0x1,%eax
  401adb:	c3                   	retq   

0000000000401adc <add_xy>:
  401adc:	48 8d 04 37          	lea    (%rdi,%rsi,1),%rax
  401ae0:	c3                   	retq   

0000000000401ae1 <getval_147>:
  401ae1:	b8 fa 89 ce 92       	mov    $0x92ce89fa,%eax
  401ae6:	c3                   	retq   

0000000000401ae7 <getval_172>:
  401ae7:	b8 44 89 ce 91       	mov    $0x91ce8944,%eax
  401aec:	c3                   	retq   

0000000000401aed <setval_326>:
  401aed:	c7 07 89 c2 48 c9    	movl   $0xc948c289,(%rdi)
  401af3:	c3                   	retq   

0000000000401af4 <getval_468>:
  401af4:	b8 48 89 e0 92       	mov    $0x92e08948,%eax
  401af9:	c3                   	retq   

0000000000401afa <getval_254>:
  401afa:	b8 40 89 e0 c3       	mov    $0xc3e08940,%eax
  401aff:	c3                   	retq   

0000000000401b00 <getval_142>:
  401b00:	b8 c9 d1 08 c9       	mov    $0xc908d1c9,%eax
  401b05:	c3                   	retq   

0000000000401b06 <setval_235>:
  401b06:	c7 07 89 d1 90 c3    	movl   $0xc390d189,(%rdi)
  401b0c:	c3                   	retq   

0000000000401b0d <setval_105>:
  401b0d:	c7 07 89 d1 28 db    	movl   $0xdb28d189,(%rdi)
  401b13:	c3                   	retq   

0000000000401b14 <setval_139>:
  401b14:	c7 07 89 d1 78 db    	movl   $0xdb78d189,(%rdi)
  401b1a:	c3                   	retq   

0000000000401b1b <setval_148>:
  401b1b:	c7 07 89 c2 84 c9    	movl   $0xc984c289,(%rdi)
  401b21:	c3                   	retq   

0000000000401b22 <getval_287>:
  401b22:	b8 48 88 e0 c3       	mov    $0xc3e08848,%eax
  401b27:	c3                   	retq   

0000000000401b28 <setval_198>:
  401b28:	c7 07 81 c2 90 90    	movl   $0x9090c281,(%rdi)
  401b2e:	c3                   	retq   

0000000000401b2f <setval_471>:
  401b2f:	c7 07 28 48 89 e0    	movl   $0xe0894828,(%rdi)
  401b35:	c3                   	retq   

0000000000401b36 <getval_113>:
  401b36:	b8 88 ce 90 c3       	mov    $0xc390ce88,%eax
  401b3b:	c3                   	retq   

0000000000401b3c <setval_115>:
  401b3c:	c7 07 89 ce 84 c9    	movl   $0xc984ce89,(%rdi)
  401b42:	c3                   	retq   

0000000000401b43 <addval_227>:
  401b43:	8d 87 89 ce 20 db    	lea    -0x24df3177(%rdi),%eax
  401b49:	c3                   	retq   

0000000000401b4a <setval_376>:
  401b4a:	c7 07 48 89 e0 94    	movl   $0x94e08948,(%rdi)
  401b50:	c3                   	retq   

0000000000401b51 <setval_188>:
  401b51:	c7 07 60 89 c2 c2    	movl   $0xc2c28960,(%rdi)
  401b57:	c3                   	retq   

0000000000401b58 <getval_122>:
  401b58:	b8 89 d1 c4 c9       	mov    $0xc9c4d189,%eax
  401b5d:	c3                   	retq   

0000000000401b5e <setval_199>:
  401b5e:	c7 07 89 c2 94 90    	movl   $0x9094c289,(%rdi)
  401b64:	c3                   	retq   

0000000000401b65 <getval_157>:
  401b65:	b8 a9 c2 08 c9       	mov    $0xc908c2a9,%eax
  401b6a:	c3                   	retq   

0000000000401b6b <setval_143>:
  401b6b:	c7 07 89 d1 20 c0    	movl   $0xc020d189,(%rdi)
  401b71:	c3                   	retq   

0000000000401b72 <addval_345>:
  401b72:	8d 87 48 8b e0 c3    	lea    -0x3c1f74b8(%rdi),%eax
  401b78:	c3                   	retq   

0000000000401b79 <setval_417>:
  401b79:	c7 07 89 ce 18 db    	movl   $0xdb18ce89,(%rdi)
  401b7f:	c3                   	retq   

0000000000401b80 <setval_216>:
  401b80:	c7 07 48 89 e0 c3    	movl   $0xc3e08948,(%rdi)
  401b86:	c3                   	retq   

0000000000401b87 <setval_262>:
  401b87:	c7 07 48 89 e0 c7    	movl   $0xc7e08948,(%rdi)
  401b8d:	c3                   	retq   

0000000000401b8e <setval_125>:
  401b8e:	c7 07 37 89 c2 91    	movl   $0x91c28937,(%rdi)
  401b94:	c3                   	retq   

0000000000401b95 <setval_124>:
  401b95:	c7 07 f5 fc 88 ce    	movl   $0xce88fcf5,(%rdi)
  401b9b:	c3                   	retq   

0000000000401b9c <addval_481>:
  401b9c:	8d 87 89 d1 30 db    	lea    -0x24cf2e77(%rdi),%eax
  401ba2:	c3                   	retq   

0000000000401ba3 <addval_404>:
  401ba3:	8d 87 88 d1 20 db    	lea    -0x24df2e78(%rdi),%eax
  401ba9:	c3                   	retq   

0000000000401baa <setval_372>:
  401baa:	c7 07 89 ce 18 d2    	movl   $0xd218ce89,(%rdi)
  401bb0:	c3                   	retq   

0000000000401bb1 <getval_462>:
  401bb1:	b8 e8 89 c2 90       	mov    $0x90c289e8,%eax
  401bb6:	c3                   	retq   

0000000000401bb7 <end_farm>:
  401bb7:	b8 01 00 00 00       	mov    $0x1,%eax
  401bbc:	c3                   	retq   

0000000000401bbd <save_char>:
  401bbd:	8b 05 81 45 20 00    	mov    0x204581(%rip),%eax        # 606144 <gets_cnt>
  401bc3:	3d ff 03 00 00       	cmp    $0x3ff,%eax
  401bc8:	7f 49                	jg     401c13 <save_char+0x56>
  401bca:	8d 14 40             	lea    (%rax,%rax,2),%edx
  401bcd:	89 f9                	mov    %edi,%ecx
  401bcf:	c0 e9 04             	shr    $0x4,%cl
  401bd2:	83 e1 0f             	and    $0xf,%ecx
  401bd5:	0f b6 b1 30 38 40 00 	movzbl 0x403830(%rcx),%esi
  401bdc:	48 63 ca             	movslq %edx,%rcx
  401bdf:	40 88 b1 40 55 60 00 	mov    %sil,0x605540(%rcx)
  401be6:	8d 4a 01             	lea    0x1(%rdx),%ecx
  401be9:	83 e7 0f             	and    $0xf,%edi
  401bec:	0f b6 b7 30 38 40 00 	movzbl 0x403830(%rdi),%esi
  401bf3:	48 63 c9             	movslq %ecx,%rcx
  401bf6:	40 88 b1 40 55 60 00 	mov    %sil,0x605540(%rcx)
  401bfd:	83 c2 02             	add    $0x2,%edx
  401c00:	48 63 d2             	movslq %edx,%rdx
  401c03:	c6 82 40 55 60 00 20 	movb   $0x20,0x605540(%rdx)
  401c0a:	83 c0 01             	add    $0x1,%eax
  401c0d:	89 05 31 45 20 00    	mov    %eax,0x204531(%rip)        # 606144 <gets_cnt>
  401c13:	f3 c3                	repz retq 

0000000000401c15 <save_term>:
  401c15:	8b 05 29 45 20 00    	mov    0x204529(%rip),%eax        # 606144 <gets_cnt>
  401c1b:	8d 04 40             	lea    (%rax,%rax,2),%eax
  401c1e:	48 98                	cltq   
  401c20:	c6 80 40 55 60 00 00 	movb   $0x0,0x605540(%rax)
  401c27:	c3                   	retq   

0000000000401c28 <check_fail>:
  401c28:	48 83 ec 08          	sub    $0x8,%rsp
  401c2c:	0f be 15 15 45 20 00 	movsbl 0x204515(%rip),%edx        # 606148 <target_prefix>
  401c33:	41 b8 40 55 60 00    	mov    $0x605540,%r8d
  401c39:	8b 0d d9 38 20 00    	mov    0x2038d9(%rip),%ecx        # 605518 <check_level>
  401c3f:	be 2b 35 40 00       	mov    $0x40352b,%esi
  401c44:	bf 01 00 00 00       	mov    $0x1,%edi
  401c49:	b8 00 00 00 00       	mov    $0x0,%eax
  401c4e:	e8 ad f1 ff ff       	callq  400e00 <__printf_chk@plt>
  401c53:	bf 01 00 00 00       	mov    $0x1,%edi
  401c58:	e8 f3 f1 ff ff       	callq  400e50 <exit@plt>

0000000000401c5d <Gets>:
  401c5d:	41 54                	push   %r12
  401c5f:	55                   	push   %rbp
  401c60:	53                   	push   %rbx
  401c61:	49 89 fc             	mov    %rdi,%r12
  401c64:	c7 05 d6 44 20 00 00 	movl   $0x0,0x2044d6(%rip)        # 606144 <gets_cnt>
  401c6b:	00 00 00 
  401c6e:	48 89 fb             	mov    %rdi,%rbx
  401c71:	eb 11                	jmp    401c84 <Gets+0x27>
  401c73:	48 8d 6b 01          	lea    0x1(%rbx),%rbp
  401c77:	88 03                	mov    %al,(%rbx)
  401c79:	0f b6 f8             	movzbl %al,%edi
  401c7c:	e8 3c ff ff ff       	callq  401bbd <save_char>
  401c81:	48 89 eb             	mov    %rbp,%rbx
  401c84:	48 8b 3d 85 38 20 00 	mov    0x203885(%rip),%rdi        # 605510 <infile>
  401c8b:	e8 40 f1 ff ff       	callq  400dd0 <_IO_getc@plt>
  401c90:	83 f8 ff             	cmp    $0xffffffff,%eax
  401c93:	74 05                	je     401c9a <Gets+0x3d>
  401c95:	83 f8 0a             	cmp    $0xa,%eax
  401c98:	75 d9                	jne    401c73 <Gets+0x16>
  401c9a:	c6 03 00             	movb   $0x0,(%rbx)
  401c9d:	b8 00 00 00 00       	mov    $0x0,%eax
  401ca2:	e8 6e ff ff ff       	callq  401c15 <save_term>
  401ca7:	4c 89 e0             	mov    %r12,%rax
  401caa:	5b                   	pop    %rbx
  401cab:	5d                   	pop    %rbp
  401cac:	41 5c                	pop    %r12
  401cae:	c3                   	retq   

0000000000401caf <notify_server>:
  401caf:	53                   	push   %rbx
  401cb0:	48 81 ec 10 40 00 00 	sub    $0x4010,%rsp
  401cb7:	64 48 8b 04 25 28 00 	mov    %fs:0x28,%rax
  401cbe:	00 00 
  401cc0:	48 89 84 24 08 40 00 	mov    %rax,0x4008(%rsp)
  401cc7:	00 
  401cc8:	31 c0                	xor    %eax,%eax
  401cca:	83 3d 57 38 20 00 00 	cmpl   $0x0,0x203857(%rip)        # 605528 <is_checker>
  401cd1:	0f 85 aa 01 00 00    	jne    401e81 <notify_server+0x1d2>
  401cd7:	89 fb                	mov    %edi,%ebx
  401cd9:	8b 05 65 44 20 00    	mov    0x204465(%rip),%eax        # 606144 <gets_cnt>
  401cdf:	83 c0 64             	add    $0x64,%eax
  401ce2:	3d 00 20 00 00       	cmp    $0x2000,%eax
  401ce7:	7e 1e                	jle    401d07 <notify_server+0x58>
  401ce9:	be 60 36 40 00       	mov    $0x403660,%esi
  401cee:	bf 01 00 00 00       	mov    $0x1,%edi
  401cf3:	b8 00 00 00 00       	mov    $0x0,%eax
  401cf8:	e8 03 f1 ff ff       	callq  400e00 <__printf_chk@plt>
  401cfd:	bf 01 00 00 00       	mov    $0x1,%edi
  401d02:	e8 49 f1 ff ff       	callq  400e50 <exit@plt>
  401d07:	0f be 05 3a 44 20 00 	movsbl 0x20443a(%rip),%eax        # 606148 <target_prefix>
  401d0e:	83 3d 93 37 20 00 00 	cmpl   $0x0,0x203793(%rip)        # 6054a8 <notify>
  401d15:	74 08                	je     401d1f <notify_server+0x70>
  401d17:	8b 15 03 38 20 00    	mov    0x203803(%rip),%edx        # 605520 <authkey>
  401d1d:	eb 05                	jmp    401d24 <notify_server+0x75>
  401d1f:	ba ff ff ff ff       	mov    $0xffffffff,%edx
  401d24:	85 db                	test   %ebx,%ebx
  401d26:	74 08                	je     401d30 <notify_server+0x81>
  401d28:	41 b9 41 35 40 00    	mov    $0x403541,%r9d
  401d2e:	eb 06                	jmp    401d36 <notify_server+0x87>
  401d30:	41 b9 46 35 40 00    	mov    $0x403546,%r9d
  401d36:	68 40 55 60 00       	pushq  $0x605540
  401d3b:	56                   	push   %rsi
  401d3c:	50                   	push   %rax
  401d3d:	52                   	push   %rdx
  401d3e:	44 8b 05 23 34 20 00 	mov    0x203423(%rip),%r8d        # 605168 <target_id>
  401d45:	b9 4b 35 40 00       	mov    $0x40354b,%ecx
  401d4a:	ba 00 20 00 00       	mov    $0x2000,%edx
  401d4f:	be 01 00 00 00       	mov    $0x1,%esi
  401d54:	48 8d 7c 24 20       	lea    0x20(%rsp),%rdi
  401d59:	b8 00 00 00 00       	mov    $0x0,%eax
  401d5e:	e8 1d f1 ff ff       	callq  400e80 <__sprintf_chk@plt>
  401d63:	48 83 c4 20          	add    $0x20,%rsp
  401d67:	83 3d 3a 37 20 00 00 	cmpl   $0x0,0x20373a(%rip)        # 6054a8 <notify>
  401d6e:	0f 84 81 00 00 00    	je     401df5 <notify_server+0x146>
  401d74:	85 db                	test   %ebx,%ebx
  401d76:	74 6e                	je     401de6 <notify_server+0x137>
  401d78:	4c 8d 8c 24 00 20 00 	lea    0x2000(%rsp),%r9
  401d7f:	00 
  401d80:	41 b8 00 00 00 00    	mov    $0x0,%r8d
  401d86:	48 89 e1             	mov    %rsp,%rcx
  401d89:	48 8b 15 e0 33 20 00 	mov    0x2033e0(%rip),%rdx        # 605170 <lab>
  401d90:	48 8b 35 e1 33 20 00 	mov    0x2033e1(%rip),%rsi        # 605178 <course>
  401d97:	48 8b 3d c2 33 20 00 	mov    0x2033c2(%rip),%rdi        # 605160 <user_id>
  401d9e:	e8 ef 10 00 00       	callq  402e92 <driver_post>
  401da3:	85 c0                	test   %eax,%eax
  401da5:	79 26                	jns    401dcd <notify_server+0x11e>
  401da7:	48 8d 94 24 00 20 00 	lea    0x2000(%rsp),%rdx
  401dae:	00 
  401daf:	be 67 35 40 00       	mov    $0x403567,%esi
  401db4:	bf 01 00 00 00       	mov    $0x1,%edi
  401db9:	b8 00 00 00 00       	mov    $0x0,%eax
  401dbe:	e8 3d f0 ff ff       	callq  400e00 <__printf_chk@plt>
  401dc3:	bf 01 00 00 00       	mov    $0x1,%edi
  401dc8:	e8 83 f0 ff ff       	callq  400e50 <exit@plt>
  401dcd:	bf 90 36 40 00       	mov    $0x403690,%edi
  401dd2:	e8 f9 ee ff ff       	callq  400cd0 <puts@plt>
  401dd7:	bf 73 35 40 00       	mov    $0x403573,%edi
  401ddc:	e8 ef ee ff ff       	callq  400cd0 <puts@plt>
  401de1:	e9 9b 00 00 00       	jmpq   401e81 <notify_server+0x1d2>
  401de6:	bf 7d 35 40 00       	mov    $0x40357d,%edi
  401deb:	e8 e0 ee ff ff       	callq  400cd0 <puts@plt>
  401df0:	e9 8c 00 00 00       	jmpq   401e81 <notify_server+0x1d2>
  401df5:	85 db                	test   %ebx,%ebx
  401df7:	74 07                	je     401e00 <notify_server+0x151>
  401df9:	ba 41 35 40 00       	mov    $0x403541,%edx
  401dfe:	eb 05                	jmp    401e05 <notify_server+0x156>
  401e00:	ba 46 35 40 00       	mov    $0x403546,%edx
  401e05:	be c8 36 40 00       	mov    $0x4036c8,%esi
  401e0a:	bf 01 00 00 00       	mov    $0x1,%edi
  401e0f:	b8 00 00 00 00       	mov    $0x0,%eax
  401e14:	e8 e7 ef ff ff       	callq  400e00 <__printf_chk@plt>
  401e19:	48 8b 15 40 33 20 00 	mov    0x203340(%rip),%rdx        # 605160 <user_id>
  401e20:	be 84 35 40 00       	mov    $0x403584,%esi
  401e25:	bf 01 00 00 00       	mov    $0x1,%edi
  401e2a:	b8 00 00 00 00       	mov    $0x0,%eax
  401e2f:	e8 cc ef ff ff       	callq  400e00 <__printf_chk@plt>
  401e34:	48 8b 15 3d 33 20 00 	mov    0x20333d(%rip),%rdx        # 605178 <course>
  401e3b:	be 91 35 40 00       	mov    $0x403591,%esi
  401e40:	bf 01 00 00 00       	mov    $0x1,%edi
  401e45:	b8 00 00 00 00       	mov    $0x0,%eax
  401e4a:	e8 b1 ef ff ff       	callq  400e00 <__printf_chk@plt>
  401e4f:	48 8b 15 1a 33 20 00 	mov    0x20331a(%rip),%rdx        # 605170 <lab>
  401e56:	be 9d 35 40 00       	mov    $0x40359d,%esi
  401e5b:	bf 01 00 00 00       	mov    $0x1,%edi
  401e60:	b8 00 00 00 00       	mov    $0x0,%eax
  401e65:	e8 96 ef ff ff       	callq  400e00 <__printf_chk@plt>
  401e6a:	48 89 e2             	mov    %rsp,%rdx
  401e6d:	be a6 35 40 00       	mov    $0x4035a6,%esi
  401e72:	bf 01 00 00 00       	mov    $0x1,%edi
  401e77:	b8 00 00 00 00       	mov    $0x0,%eax
  401e7c:	e8 7f ef ff ff       	callq  400e00 <__printf_chk@plt>
  401e81:	48 8b 84 24 08 40 00 	mov    0x4008(%rsp),%rax
  401e88:	00 
  401e89:	64 48 33 04 25 28 00 	xor    %fs:0x28,%rax
  401e90:	00 00 
  401e92:	74 05                	je     401e99 <notify_server+0x1ea>
  401e94:	e8 57 ee ff ff       	callq  400cf0 <__stack_chk_fail@plt>
  401e99:	48 81 c4 10 40 00 00 	add    $0x4010,%rsp
  401ea0:	5b                   	pop    %rbx
  401ea1:	c3                   	retq   

0000000000401ea2 <validate>:
  401ea2:	53                   	push   %rbx
  401ea3:	89 fb                	mov    %edi,%ebx
  401ea5:	83 3d 7c 36 20 00 00 	cmpl   $0x0,0x20367c(%rip)        # 605528 <is_checker>
  401eac:	74 6b                	je     401f19 <validate+0x77>
  401eae:	39 3d 68 36 20 00    	cmp    %edi,0x203668(%rip)        # 60551c <vlevel>
  401eb4:	74 14                	je     401eca <validate+0x28>
  401eb6:	bf b2 35 40 00       	mov    $0x4035b2,%edi
  401ebb:	e8 10 ee ff ff       	callq  400cd0 <puts@plt>
  401ec0:	b8 00 00 00 00       	mov    $0x0,%eax
  401ec5:	e8 5e fd ff ff       	callq  401c28 <check_fail>
  401eca:	8b 15 48 36 20 00    	mov    0x203648(%rip),%edx        # 605518 <check_level>
  401ed0:	39 d7                	cmp    %edx,%edi
  401ed2:	74 20                	je     401ef4 <validate+0x52>
  401ed4:	89 f9                	mov    %edi,%ecx
  401ed6:	be f0 36 40 00       	mov    $0x4036f0,%esi
  401edb:	bf 01 00 00 00       	mov    $0x1,%edi
  401ee0:	b8 00 00 00 00       	mov    $0x0,%eax
  401ee5:	e8 16 ef ff ff       	callq  400e00 <__printf_chk@plt>
  401eea:	b8 00 00 00 00       	mov    $0x0,%eax
  401eef:	e8 34 fd ff ff       	callq  401c28 <check_fail>
  401ef4:	0f be 15 4d 42 20 00 	movsbl 0x20424d(%rip),%edx        # 606148 <target_prefix>
  401efb:	41 b8 40 55 60 00    	mov    $0x605540,%r8d
  401f01:	89 f9                	mov    %edi,%ecx
  401f03:	be d0 35 40 00       	mov    $0x4035d0,%esi
  401f08:	bf 01 00 00 00       	mov    $0x1,%edi
  401f0d:	b8 00 00 00 00       	mov    $0x0,%eax
  401f12:	e8 e9 ee ff ff       	callq  400e00 <__printf_chk@plt>
  401f17:	eb 49                	jmp    401f62 <validate+0xc0>
  401f19:	3b 3d fd 35 20 00    	cmp    0x2035fd(%rip),%edi        # 60551c <vlevel>
  401f1f:	74 18                	je     401f39 <validate+0x97>
  401f21:	bf b2 35 40 00       	mov    $0x4035b2,%edi
  401f26:	e8 a5 ed ff ff       	callq  400cd0 <puts@plt>
  401f2b:	89 de                	mov    %ebx,%esi
  401f2d:	bf 00 00 00 00       	mov    $0x0,%edi
  401f32:	e8 78 fd ff ff       	callq  401caf <notify_server>
  401f37:	eb 29                	jmp    401f62 <validate+0xc0>
  401f39:	0f be 0d 08 42 20 00 	movsbl 0x204208(%rip),%ecx        # 606148 <target_prefix>
  401f40:	89 fa                	mov    %edi,%edx
  401f42:	be 18 37 40 00       	mov    $0x403718,%esi
  401f47:	bf 01 00 00 00       	mov    $0x1,%edi
  401f4c:	b8 00 00 00 00       	mov    $0x0,%eax
  401f51:	e8 aa ee ff ff       	callq  400e00 <__printf_chk@plt>
  401f56:	89 de                	mov    %ebx,%esi
  401f58:	bf 01 00 00 00       	mov    $0x1,%edi
  401f5d:	e8 4d fd ff ff       	callq  401caf <notify_server>
  401f62:	5b                   	pop    %rbx
  401f63:	c3                   	retq   

0000000000401f64 <fail>:
  401f64:	48 83 ec 08          	sub    $0x8,%rsp
  401f68:	83 3d b9 35 20 00 00 	cmpl   $0x0,0x2035b9(%rip)        # 605528 <is_checker>
  401f6f:	74 0a                	je     401f7b <fail+0x17>
  401f71:	b8 00 00 00 00       	mov    $0x0,%eax
  401f76:	e8 ad fc ff ff       	callq  401c28 <check_fail>
  401f7b:	89 fe                	mov    %edi,%esi
  401f7d:	bf 00 00 00 00       	mov    $0x0,%edi
  401f82:	e8 28 fd ff ff       	callq  401caf <notify_server>
  401f87:	48 83 c4 08          	add    $0x8,%rsp
  401f8b:	c3                   	retq   

0000000000401f8c <bushandler>:
  401f8c:	48 83 ec 08          	sub    $0x8,%rsp
  401f90:	83 3d 91 35 20 00 00 	cmpl   $0x0,0x203591(%rip)        # 605528 <is_checker>
  401f97:	74 14                	je     401fad <bushandler+0x21>
  401f99:	bf e5 35 40 00       	mov    $0x4035e5,%edi
  401f9e:	e8 2d ed ff ff       	callq  400cd0 <puts@plt>
  401fa3:	b8 00 00 00 00       	mov    $0x0,%eax
  401fa8:	e8 7b fc ff ff       	callq  401c28 <check_fail>
  401fad:	bf 50 37 40 00       	mov    $0x403750,%edi
  401fb2:	e8 19 ed ff ff       	callq  400cd0 <puts@plt>
  401fb7:	bf ef 35 40 00       	mov    $0x4035ef,%edi
  401fbc:	e8 0f ed ff ff       	callq  400cd0 <puts@plt>
  401fc1:	be 00 00 00 00       	mov    $0x0,%esi
  401fc6:	bf 00 00 00 00       	mov    $0x0,%edi
  401fcb:	e8 df fc ff ff       	callq  401caf <notify_server>
  401fd0:	bf 01 00 00 00       	mov    $0x1,%edi
  401fd5:	e8 76 ee ff ff       	callq  400e50 <exit@plt>

0000000000401fda <seghandler>:
  401fda:	48 83 ec 08          	sub    $0x8,%rsp
  401fde:	83 3d 43 35 20 00 00 	cmpl   $0x0,0x203543(%rip)        # 605528 <is_checker>
  401fe5:	74 14                	je     401ffb <seghandler+0x21>
  401fe7:	bf 05 36 40 00       	mov    $0x403605,%edi
  401fec:	e8 df ec ff ff       	callq  400cd0 <puts@plt>
  401ff1:	b8 00 00 00 00       	mov    $0x0,%eax
  401ff6:	e8 2d fc ff ff       	callq  401c28 <check_fail>
  401ffb:	bf 70 37 40 00       	mov    $0x403770,%edi
  402000:	e8 cb ec ff ff       	callq  400cd0 <puts@plt>
  402005:	bf ef 35 40 00       	mov    $0x4035ef,%edi
  40200a:	e8 c1 ec ff ff       	callq  400cd0 <puts@plt>
  40200f:	be 00 00 00 00       	mov    $0x0,%esi
  402014:	bf 00 00 00 00       	mov    $0x0,%edi
  402019:	e8 91 fc ff ff       	callq  401caf <notify_server>
  40201e:	bf 01 00 00 00       	mov    $0x1,%edi
  402023:	e8 28 ee ff ff       	callq  400e50 <exit@plt>

0000000000402028 <illegalhandler>:
  402028:	48 83 ec 08          	sub    $0x8,%rsp
  40202c:	83 3d f5 34 20 00 00 	cmpl   $0x0,0x2034f5(%rip)        # 605528 <is_checker>
  402033:	74 14                	je     402049 <illegalhandler+0x21>
  402035:	bf 18 36 40 00       	mov    $0x403618,%edi
  40203a:	e8 91 ec ff ff       	callq  400cd0 <puts@plt>
  40203f:	b8 00 00 00 00       	mov    $0x0,%eax
  402044:	e8 df fb ff ff       	callq  401c28 <check_fail>
  402049:	bf 98 37 40 00       	mov    $0x403798,%edi
  40204e:	e8 7d ec ff ff       	callq  400cd0 <puts@plt>
  402053:	bf ef 35 40 00       	mov    $0x4035ef,%edi
  402058:	e8 73 ec ff ff       	callq  400cd0 <puts@plt>
  40205d:	be 00 00 00 00       	mov    $0x0,%esi
  402062:	bf 00 00 00 00       	mov    $0x0,%edi
  402067:	e8 43 fc ff ff       	callq  401caf <notify_server>
  40206c:	bf 01 00 00 00       	mov    $0x1,%edi
  402071:	e8 da ed ff ff       	callq  400e50 <exit@plt>

0000000000402076 <sigalrmhandler>:
  402076:	48 83 ec 08          	sub    $0x8,%rsp
  40207a:	83 3d a7 34 20 00 00 	cmpl   $0x0,0x2034a7(%rip)        # 605528 <is_checker>
  402081:	74 14                	je     402097 <sigalrmhandler+0x21>
  402083:	bf 2c 36 40 00       	mov    $0x40362c,%edi
  402088:	e8 43 ec ff ff       	callq  400cd0 <puts@plt>
  40208d:	b8 00 00 00 00       	mov    $0x0,%eax
  402092:	e8 91 fb ff ff       	callq  401c28 <check_fail>
  402097:	ba 05 00 00 00       	mov    $0x5,%edx
  40209c:	be c8 37 40 00       	mov    $0x4037c8,%esi
  4020a1:	bf 01 00 00 00       	mov    $0x1,%edi
  4020a6:	b8 00 00 00 00       	mov    $0x0,%eax
  4020ab:	e8 50 ed ff ff       	callq  400e00 <__printf_chk@plt>
  4020b0:	be 00 00 00 00       	mov    $0x0,%esi
  4020b5:	bf 00 00 00 00       	mov    $0x0,%edi
  4020ba:	e8 f0 fb ff ff       	callq  401caf <notify_server>
  4020bf:	bf 01 00 00 00       	mov    $0x1,%edi
  4020c4:	e8 87 ed ff ff       	callq  400e50 <exit@plt>

00000000004020c9 <launch>:
  4020c9:	55                   	push   %rbp
  4020ca:	48 89 e5             	mov    %rsp,%rbp
  4020cd:	48 83 ec 10          	sub    $0x10,%rsp
  4020d1:	48 89 fa             	mov    %rdi,%rdx
  4020d4:	64 48 8b 04 25 28 00 	mov    %fs:0x28,%rax
  4020db:	00 00 
  4020dd:	48 89 45 f8          	mov    %rax,-0x8(%rbp)
  4020e1:	31 c0                	xor    %eax,%eax
  4020e3:	48 8d 47 1e          	lea    0x1e(%rdi),%rax
  4020e7:	48 83 e0 f0          	and    $0xfffffffffffffff0,%rax
  4020eb:	48 29 c4             	sub    %rax,%rsp
  4020ee:	48 8d 7c 24 0f       	lea    0xf(%rsp),%rdi
  4020f3:	48 83 e7 f0          	and    $0xfffffffffffffff0,%rdi
  4020f7:	be f4 00 00 00       	mov    $0xf4,%esi
  4020fc:	e8 0f ec ff ff       	callq  400d10 <memset@plt>
  402101:	48 8b 05 b8 33 20 00 	mov    0x2033b8(%rip),%rax        # 6054c0 <stdin@@GLIBC_2.2.5>
  402108:	48 39 05 01 34 20 00 	cmp    %rax,0x203401(%rip)        # 605510 <infile>
  40210f:	75 14                	jne    402125 <launch+0x5c>
  402111:	be 34 36 40 00       	mov    $0x403634,%esi
  402116:	bf 01 00 00 00       	mov    $0x1,%edi
  40211b:	b8 00 00 00 00       	mov    $0x0,%eax
  402120:	e8 db ec ff ff       	callq  400e00 <__printf_chk@plt>
  402125:	c7 05 ed 33 20 00 00 	movl   $0x0,0x2033ed(%rip)        # 60551c <vlevel>
  40212c:	00 00 00 
  40212f:	b8 00 00 00 00       	mov    $0x0,%eax
  402134:	e8 39 f9 ff ff       	callq  401a72 <test>
  402139:	83 3d e8 33 20 00 00 	cmpl   $0x0,0x2033e8(%rip)        # 605528 <is_checker>
  402140:	74 14                	je     402156 <launch+0x8d>
  402142:	bf 41 36 40 00       	mov    $0x403641,%edi
  402147:	e8 84 eb ff ff       	callq  400cd0 <puts@plt>
  40214c:	b8 00 00 00 00       	mov    $0x0,%eax
  402151:	e8 d2 fa ff ff       	callq  401c28 <check_fail>
  402156:	bf 4c 36 40 00       	mov    $0x40364c,%edi
  40215b:	e8 70 eb ff ff       	callq  400cd0 <puts@plt>
  402160:	48 8b 45 f8          	mov    -0x8(%rbp),%rax
  402164:	64 48 33 04 25 28 00 	xor    %fs:0x28,%rax
  40216b:	00 00 
  40216d:	74 05                	je     402174 <launch+0xab>
  40216f:	e8 7c eb ff ff       	callq  400cf0 <__stack_chk_fail@plt>
  402174:	c9                   	leaveq 
  402175:	c3                   	retq   

0000000000402176 <stable_launch>:
  402176:	53                   	push   %rbx
  402177:	48 89 3d 8a 33 20 00 	mov    %rdi,0x20338a(%rip)        # 605508 <global_offset>
  40217e:	41 b9 00 00 00 00    	mov    $0x0,%r9d
  402184:	41 b8 00 00 00 00    	mov    $0x0,%r8d
  40218a:	b9 32 01 00 00       	mov    $0x132,%ecx
  40218f:	ba 07 00 00 00       	mov    $0x7,%edx
  402194:	be 00 00 10 00       	mov    $0x100000,%esi
  402199:	bf 00 60 58 55       	mov    $0x55586000,%edi
  40219e:	e8 5d eb ff ff       	callq  400d00 <mmap@plt>
  4021a3:	48 89 c3             	mov    %rax,%rbx
  4021a6:	48 3d 00 60 58 55    	cmp    $0x55586000,%rax
  4021ac:	74 37                	je     4021e5 <stable_launch+0x6f>
  4021ae:	be 00 00 10 00       	mov    $0x100000,%esi
  4021b3:	48 89 c7             	mov    %rax,%rdi
  4021b6:	e8 35 ec ff ff       	callq  400df0 <munmap@plt>
  4021bb:	b9 00 60 58 55       	mov    $0x55586000,%ecx
  4021c0:	ba 00 38 40 00       	mov    $0x403800,%edx
  4021c5:	be 01 00 00 00       	mov    $0x1,%esi
  4021ca:	48 8b 3d 0f 33 20 00 	mov    0x20330f(%rip),%rdi        # 6054e0 <stderr@@GLIBC_2.2.5>
  4021d1:	b8 00 00 00 00       	mov    $0x0,%eax
  4021d6:	e8 95 ec ff ff       	callq  400e70 <__fprintf_chk@plt>
  4021db:	bf 01 00 00 00       	mov    $0x1,%edi
  4021e0:	e8 6b ec ff ff       	callq  400e50 <exit@plt>
  4021e5:	48 8d 90 f8 ff 0f 00 	lea    0xffff8(%rax),%rdx
  4021ec:	48 89 15 5d 3f 20 00 	mov    %rdx,0x203f5d(%rip)        # 606150 <stack_top>
  4021f3:	48 89 e0             	mov    %rsp,%rax
  4021f6:	48 89 d4             	mov    %rdx,%rsp
  4021f9:	48 89 c2             	mov    %rax,%rdx
  4021fc:	48 89 15 fd 32 20 00 	mov    %rdx,0x2032fd(%rip)        # 605500 <global_save_stack>
  402203:	48 8b 3d fe 32 20 00 	mov    0x2032fe(%rip),%rdi        # 605508 <global_offset>
  40220a:	e8 ba fe ff ff       	callq  4020c9 <launch>
  40220f:	48 8b 05 ea 32 20 00 	mov    0x2032ea(%rip),%rax        # 605500 <global_save_stack>
  402216:	48 89 c4             	mov    %rax,%rsp
  402219:	be 00 00 10 00       	mov    $0x100000,%esi
  40221e:	48 89 df             	mov    %rbx,%rdi
  402221:	e8 ca eb ff ff       	callq  400df0 <munmap@plt>
  402226:	5b                   	pop    %rbx
  402227:	c3                   	retq   

0000000000402228 <rio_readinitb>:
  402228:	89 37                	mov    %esi,(%rdi)
  40222a:	c7 47 04 00 00 00 00 	movl   $0x0,0x4(%rdi)
  402231:	48 8d 47 10          	lea    0x10(%rdi),%rax
  402235:	48 89 47 08          	mov    %rax,0x8(%rdi)
  402239:	c3                   	retq   

000000000040223a <sigalrm_handler>:
  40223a:	48 83 ec 08          	sub    $0x8,%rsp
  40223e:	b9 00 00 00 00       	mov    $0x0,%ecx
  402243:	ba 40 38 40 00       	mov    $0x403840,%edx
  402248:	be 01 00 00 00       	mov    $0x1,%esi
  40224d:	48 8b 3d 8c 32 20 00 	mov    0x20328c(%rip),%rdi        # 6054e0 <stderr@@GLIBC_2.2.5>
  402254:	b8 00 00 00 00       	mov    $0x0,%eax
  402259:	e8 12 ec ff ff       	callq  400e70 <__fprintf_chk@plt>
  40225e:	bf 01 00 00 00       	mov    $0x1,%edi
  402263:	e8 e8 eb ff ff       	callq  400e50 <exit@plt>

0000000000402268 <rio_writen>:
  402268:	41 55                	push   %r13
  40226a:	41 54                	push   %r12
  40226c:	55                   	push   %rbp
  40226d:	53                   	push   %rbx
  40226e:	48 83 ec 08          	sub    $0x8,%rsp
  402272:	41 89 fc             	mov    %edi,%r12d
  402275:	48 89 f5             	mov    %rsi,%rbp
  402278:	49 89 d5             	mov    %rdx,%r13
  40227b:	48 89 d3             	mov    %rdx,%rbx
  40227e:	eb 28                	jmp    4022a8 <rio_writen+0x40>
  402280:	48 89 da             	mov    %rbx,%rdx
  402283:	48 89 ee             	mov    %rbp,%rsi
  402286:	44 89 e7             	mov    %r12d,%edi
  402289:	e8 52 ea ff ff       	callq  400ce0 <write@plt>
  40228e:	48 85 c0             	test   %rax,%rax
  402291:	7f 0f                	jg     4022a2 <rio_writen+0x3a>
  402293:	e8 f8 e9 ff ff       	callq  400c90 <__errno_location@plt>
  402298:	83 38 04             	cmpl   $0x4,(%rax)
  40229b:	75 15                	jne    4022b2 <rio_writen+0x4a>
  40229d:	b8 00 00 00 00       	mov    $0x0,%eax
  4022a2:	48 29 c3             	sub    %rax,%rbx
  4022a5:	48 01 c5             	add    %rax,%rbp
  4022a8:	48 85 db             	test   %rbx,%rbx
  4022ab:	75 d3                	jne    402280 <rio_writen+0x18>
  4022ad:	4c 89 e8             	mov    %r13,%rax
  4022b0:	eb 07                	jmp    4022b9 <rio_writen+0x51>
  4022b2:	48 c7 c0 ff ff ff ff 	mov    $0xffffffffffffffff,%rax
  4022b9:	48 83 c4 08          	add    $0x8,%rsp
  4022bd:	5b                   	pop    %rbx
  4022be:	5d                   	pop    %rbp
  4022bf:	41 5c                	pop    %r12
  4022c1:	41 5d                	pop    %r13
  4022c3:	c3                   	retq   

00000000004022c4 <rio_read>:
  4022c4:	41 55                	push   %r13
  4022c6:	41 54                	push   %r12
  4022c8:	55                   	push   %rbp
  4022c9:	53                   	push   %rbx
  4022ca:	48 83 ec 08          	sub    $0x8,%rsp
  4022ce:	48 89 fb             	mov    %rdi,%rbx
  4022d1:	49 89 f5             	mov    %rsi,%r13
  4022d4:	49 89 d4             	mov    %rdx,%r12
  4022d7:	eb 2e                	jmp    402307 <rio_read+0x43>
  4022d9:	48 8d 6b 10          	lea    0x10(%rbx),%rbp
  4022dd:	8b 3b                	mov    (%rbx),%edi
  4022df:	ba 00 20 00 00       	mov    $0x2000,%edx
  4022e4:	48 89 ee             	mov    %rbp,%rsi
  4022e7:	e8 54 ea ff ff       	callq  400d40 <read@plt>
  4022ec:	89 43 04             	mov    %eax,0x4(%rbx)
  4022ef:	85 c0                	test   %eax,%eax
  4022f1:	79 0c                	jns    4022ff <rio_read+0x3b>
  4022f3:	e8 98 e9 ff ff       	callq  400c90 <__errno_location@plt>
  4022f8:	83 38 04             	cmpl   $0x4,(%rax)
  4022fb:	74 0a                	je     402307 <rio_read+0x43>
  4022fd:	eb 37                	jmp    402336 <rio_read+0x72>
  4022ff:	85 c0                	test   %eax,%eax
  402301:	74 3c                	je     40233f <rio_read+0x7b>
  402303:	48 89 6b 08          	mov    %rbp,0x8(%rbx)
  402307:	8b 6b 04             	mov    0x4(%rbx),%ebp
  40230a:	85 ed                	test   %ebp,%ebp
  40230c:	7e cb                	jle    4022d9 <rio_read+0x15>
  40230e:	89 e8                	mov    %ebp,%eax
  402310:	49 39 c4             	cmp    %rax,%r12
  402313:	77 03                	ja     402318 <rio_read+0x54>
  402315:	44 89 e5             	mov    %r12d,%ebp
  402318:	4c 63 e5             	movslq %ebp,%r12
  40231b:	48 8b 73 08          	mov    0x8(%rbx),%rsi
  40231f:	4c 89 e2             	mov    %r12,%rdx
  402322:	4c 89 ef             	mov    %r13,%rdi
  402325:	e8 76 ea ff ff       	callq  400da0 <memcpy@plt>
  40232a:	4c 01 63 08          	add    %r12,0x8(%rbx)
  40232e:	29 6b 04             	sub    %ebp,0x4(%rbx)
  402331:	4c 89 e0             	mov    %r12,%rax
  402334:	eb 0e                	jmp    402344 <rio_read+0x80>
  402336:	48 c7 c0 ff ff ff ff 	mov    $0xffffffffffffffff,%rax
  40233d:	eb 05                	jmp    402344 <rio_read+0x80>
  40233f:	b8 00 00 00 00       	mov    $0x0,%eax
  402344:	48 83 c4 08          	add    $0x8,%rsp
  402348:	5b                   	pop    %rbx
  402349:	5d                   	pop    %rbp
  40234a:	41 5c                	pop    %r12
  40234c:	41 5d                	pop    %r13
  40234e:	c3                   	retq   

000000000040234f <rio_readlineb>:
  40234f:	41 55                	push   %r13
  402351:	41 54                	push   %r12
  402353:	55                   	push   %rbp
  402354:	53                   	push   %rbx
  402355:	48 83 ec 18          	sub    $0x18,%rsp
  402359:	49 89 fd             	mov    %rdi,%r13
  40235c:	48 89 f5             	mov    %rsi,%rbp
  40235f:	49 89 d4             	mov    %rdx,%r12
  402362:	64 48 8b 04 25 28 00 	mov    %fs:0x28,%rax
  402369:	00 00 
  40236b:	48 89 44 24 08       	mov    %rax,0x8(%rsp)
  402370:	31 c0                	xor    %eax,%eax
  402372:	bb 01 00 00 00       	mov    $0x1,%ebx
  402377:	eb 3f                	jmp    4023b8 <rio_readlineb+0x69>
  402379:	ba 01 00 00 00       	mov    $0x1,%edx
  40237e:	48 8d 74 24 07       	lea    0x7(%rsp),%rsi
  402383:	4c 89 ef             	mov    %r13,%rdi
  402386:	e8 39 ff ff ff       	callq  4022c4 <rio_read>
  40238b:	83 f8 01             	cmp    $0x1,%eax
  40238e:	75 15                	jne    4023a5 <rio_readlineb+0x56>
  402390:	48 8d 45 01          	lea    0x1(%rbp),%rax
  402394:	0f b6 54 24 07       	movzbl 0x7(%rsp),%edx
  402399:	88 55 00             	mov    %dl,0x0(%rbp)
  40239c:	80 7c 24 07 0a       	cmpb   $0xa,0x7(%rsp)
  4023a1:	75 0e                	jne    4023b1 <rio_readlineb+0x62>
  4023a3:	eb 1a                	jmp    4023bf <rio_readlineb+0x70>
  4023a5:	85 c0                	test   %eax,%eax
  4023a7:	75 22                	jne    4023cb <rio_readlineb+0x7c>
  4023a9:	48 83 fb 01          	cmp    $0x1,%rbx
  4023ad:	75 13                	jne    4023c2 <rio_readlineb+0x73>
  4023af:	eb 23                	jmp    4023d4 <rio_readlineb+0x85>
  4023b1:	48 83 c3 01          	add    $0x1,%rbx
  4023b5:	48 89 c5             	mov    %rax,%rbp
  4023b8:	4c 39 e3             	cmp    %r12,%rbx
  4023bb:	72 bc                	jb     402379 <rio_readlineb+0x2a>
  4023bd:	eb 03                	jmp    4023c2 <rio_readlineb+0x73>
  4023bf:	48 89 c5             	mov    %rax,%rbp
  4023c2:	c6 45 00 00          	movb   $0x0,0x0(%rbp)
  4023c6:	48 89 d8             	mov    %rbx,%rax
  4023c9:	eb 0e                	jmp    4023d9 <rio_readlineb+0x8a>
  4023cb:	48 c7 c0 ff ff ff ff 	mov    $0xffffffffffffffff,%rax
  4023d2:	eb 05                	jmp    4023d9 <rio_readlineb+0x8a>
  4023d4:	b8 00 00 00 00       	mov    $0x0,%eax
  4023d9:	48 8b 4c 24 08       	mov    0x8(%rsp),%rcx
  4023de:	64 48 33 0c 25 28 00 	xor    %fs:0x28,%rcx
  4023e5:	00 00 
  4023e7:	74 05                	je     4023ee <rio_readlineb+0x9f>
  4023e9:	e8 02 e9 ff ff       	callq  400cf0 <__stack_chk_fail@plt>
  4023ee:	48 83 c4 18          	add    $0x18,%rsp
  4023f2:	5b                   	pop    %rbx
  4023f3:	5d                   	pop    %rbp
  4023f4:	41 5c                	pop    %r12
  4023f6:	41 5d                	pop    %r13
  4023f8:	c3                   	retq   

00000000004023f9 <urlencode>:
  4023f9:	41 54                	push   %r12
  4023fb:	55                   	push   %rbp
  4023fc:	53                   	push   %rbx
  4023fd:	48 83 ec 10          	sub    $0x10,%rsp
  402401:	48 89 fb             	mov    %rdi,%rbx
  402404:	48 89 f5             	mov    %rsi,%rbp
  402407:	64 48 8b 04 25 28 00 	mov    %fs:0x28,%rax
  40240e:	00 00 
  402410:	48 89 44 24 08       	mov    %rax,0x8(%rsp)
  402415:	31 c0                	xor    %eax,%eax
  402417:	48 c7 c1 ff ff ff ff 	mov    $0xffffffffffffffff,%rcx
  40241e:	f2 ae                	repnz scas %es:(%rdi),%al
  402420:	48 f7 d1             	not    %rcx
  402423:	8d 41 ff             	lea    -0x1(%rcx),%eax
  402426:	e9 aa 00 00 00       	jmpq   4024d5 <urlencode+0xdc>
  40242b:	44 0f b6 03          	movzbl (%rbx),%r8d
  40242f:	41 80 f8 2a          	cmp    $0x2a,%r8b
  402433:	0f 94 c2             	sete   %dl
  402436:	41 80 f8 2d          	cmp    $0x2d,%r8b
  40243a:	0f 94 c0             	sete   %al
  40243d:	08 c2                	or     %al,%dl
  40243f:	75 24                	jne    402465 <urlencode+0x6c>
  402441:	41 80 f8 2e          	cmp    $0x2e,%r8b
  402445:	74 1e                	je     402465 <urlencode+0x6c>
  402447:	41 80 f8 5f          	cmp    $0x5f,%r8b
  40244b:	74 18                	je     402465 <urlencode+0x6c>
  40244d:	41 8d 40 d0          	lea    -0x30(%r8),%eax
  402451:	3c 09                	cmp    $0x9,%al
  402453:	76 10                	jbe    402465 <urlencode+0x6c>
  402455:	41 8d 40 bf          	lea    -0x41(%r8),%eax
  402459:	3c 19                	cmp    $0x19,%al
  40245b:	76 08                	jbe    402465 <urlencode+0x6c>
  40245d:	41 8d 40 9f          	lea    -0x61(%r8),%eax
  402461:	3c 19                	cmp    $0x19,%al
  402463:	77 0a                	ja     40246f <urlencode+0x76>
  402465:	44 88 45 00          	mov    %r8b,0x0(%rbp)
  402469:	48 8d 6d 01          	lea    0x1(%rbp),%rbp
  40246d:	eb 5f                	jmp    4024ce <urlencode+0xd5>
  40246f:	41 80 f8 20          	cmp    $0x20,%r8b
  402473:	75 0a                	jne    40247f <urlencode+0x86>
  402475:	c6 45 00 2b          	movb   $0x2b,0x0(%rbp)
  402479:	48 8d 6d 01          	lea    0x1(%rbp),%rbp
  40247d:	eb 4f                	jmp    4024ce <urlencode+0xd5>
  40247f:	41 8d 40 e0          	lea    -0x20(%r8),%eax
  402483:	3c 5f                	cmp    $0x5f,%al
  402485:	0f 96 c2             	setbe  %dl
  402488:	41 80 f8 09          	cmp    $0x9,%r8b
  40248c:	0f 94 c0             	sete   %al
  40248f:	08 c2                	or     %al,%dl
  402491:	74 50                	je     4024e3 <urlencode+0xea>
  402493:	45 0f b6 c0          	movzbl %r8b,%r8d
  402497:	b9 d8 38 40 00       	mov    $0x4038d8,%ecx
  40249c:	ba 08 00 00 00       	mov    $0x8,%edx
  4024a1:	be 01 00 00 00       	mov    $0x1,%esi
  4024a6:	48 89 e7             	mov    %rsp,%rdi
  4024a9:	b8 00 00 00 00       	mov    $0x0,%eax
  4024ae:	e8 cd e9 ff ff       	callq  400e80 <__sprintf_chk@plt>
  4024b3:	0f b6 04 24          	movzbl (%rsp),%eax
  4024b7:	88 45 00             	mov    %al,0x0(%rbp)
  4024ba:	0f b6 44 24 01       	movzbl 0x1(%rsp),%eax
  4024bf:	88 45 01             	mov    %al,0x1(%rbp)
  4024c2:	0f b6 44 24 02       	movzbl 0x2(%rsp),%eax
  4024c7:	88 45 02             	mov    %al,0x2(%rbp)
  4024ca:	48 8d 6d 03          	lea    0x3(%rbp),%rbp
  4024ce:	48 83 c3 01          	add    $0x1,%rbx
  4024d2:	44 89 e0             	mov    %r12d,%eax
  4024d5:	44 8d 60 ff          	lea    -0x1(%rax),%r12d
  4024d9:	85 c0                	test   %eax,%eax
  4024db:	0f 85 4a ff ff ff    	jne    40242b <urlencode+0x32>
  4024e1:	eb 05                	jmp    4024e8 <urlencode+0xef>
  4024e3:	b8 ff ff ff ff       	mov    $0xffffffff,%eax
  4024e8:	48 8b 74 24 08       	mov    0x8(%rsp),%rsi
  4024ed:	64 48 33 34 25 28 00 	xor    %fs:0x28,%rsi
  4024f4:	00 00 
  4024f6:	74 05                	je     4024fd <urlencode+0x104>
  4024f8:	e8 f3 e7 ff ff       	callq  400cf0 <__stack_chk_fail@plt>
  4024fd:	48 83 c4 10          	add    $0x10,%rsp
  402501:	5b                   	pop    %rbx
  402502:	5d                   	pop    %rbp
  402503:	41 5c                	pop    %r12
  402505:	c3                   	retq   

0000000000402506 <submitr>:
  402506:	41 57                	push   %r15
  402508:	41 56                	push   %r14
  40250a:	41 55                	push   %r13
  40250c:	41 54                	push   %r12
  40250e:	55                   	push   %rbp
  40250f:	53                   	push   %rbx
  402510:	48 81 ec 58 a0 00 00 	sub    $0xa058,%rsp
  402517:	49 89 fc             	mov    %rdi,%r12
  40251a:	89 74 24 04          	mov    %esi,0x4(%rsp)
  40251e:	49 89 d7             	mov    %rdx,%r15
  402521:	49 89 ce             	mov    %rcx,%r14
  402524:	4c 89 44 24 08       	mov    %r8,0x8(%rsp)
  402529:	4d 89 cd             	mov    %r9,%r13
  40252c:	48 8b 9c 24 90 a0 00 	mov    0xa090(%rsp),%rbx
  402533:	00 
  402534:	64 48 8b 04 25 28 00 	mov    %fs:0x28,%rax
  40253b:	00 00 
  40253d:	48 89 84 24 48 a0 00 	mov    %rax,0xa048(%rsp)
  402544:	00 
  402545:	31 c0                	xor    %eax,%eax
  402547:	c7 44 24 1c 00 00 00 	movl   $0x0,0x1c(%rsp)
  40254e:	00 
  40254f:	ba 00 00 00 00       	mov    $0x0,%edx
  402554:	be 01 00 00 00       	mov    $0x1,%esi
  402559:	bf 02 00 00 00       	mov    $0x2,%edi
  40255e:	e8 2d e9 ff ff       	callq  400e90 <socket@plt>
  402563:	85 c0                	test   %eax,%eax
  402565:	79 4e                	jns    4025b5 <submitr+0xaf>
  402567:	48 b8 45 72 72 6f 72 	movabs $0x43203a726f727245,%rax
  40256e:	3a 20 43 
  402571:	48 89 03             	mov    %rax,(%rbx)
  402574:	48 b8 6c 69 65 6e 74 	movabs $0x6e7520746e65696c,%rax
  40257b:	20 75 6e 
  40257e:	48 89 43 08          	mov    %rax,0x8(%rbx)
  402582:	48 b8 61 62 6c 65 20 	movabs $0x206f7420656c6261,%rax
  402589:	74 6f 20 
  40258c:	48 89 43 10          	mov    %rax,0x10(%rbx)
  402590:	48 b8 63 72 65 61 74 	movabs $0x7320657461657263,%rax
  402597:	65 20 73 
  40259a:	48 89 43 18          	mov    %rax,0x18(%rbx)
  40259e:	c7 43 20 6f 63 6b 65 	movl   $0x656b636f,0x20(%rbx)
  4025a5:	66 c7 43 24 74 00    	movw   $0x74,0x24(%rbx)
  4025ab:	b8 ff ff ff ff       	mov    $0xffffffff,%eax
  4025b0:	e9 97 06 00 00       	jmpq   402c4c <submitr+0x746>
  4025b5:	89 c5                	mov    %eax,%ebp
  4025b7:	4c 89 e7             	mov    %r12,%rdi
  4025ba:	e8 b1 e7 ff ff       	callq  400d70 <gethostbyname@plt>
  4025bf:	48 85 c0             	test   %rax,%rax
  4025c2:	75 67                	jne    40262b <submitr+0x125>
  4025c4:	48 b8 45 72 72 6f 72 	movabs $0x44203a726f727245,%rax
  4025cb:	3a 20 44 
  4025ce:	48 89 03             	mov    %rax,(%rbx)
  4025d1:	48 b8 4e 53 20 69 73 	movabs $0x6e7520736920534e,%rax
  4025d8:	20 75 6e 
  4025db:	48 89 43 08          	mov    %rax,0x8(%rbx)
  4025df:	48 b8 61 62 6c 65 20 	movabs $0x206f7420656c6261,%rax
  4025e6:	74 6f 20 
  4025e9:	48 89 43 10          	mov    %rax,0x10(%rbx)
  4025ed:	48 b8 72 65 73 6f 6c 	movabs $0x2065766c6f736572,%rax
  4025f4:	76 65 20 
  4025f7:	48 89 43 18          	mov    %rax,0x18(%rbx)
  4025fb:	48 b8 73 65 72 76 65 	movabs $0x6120726576726573,%rax
  402602:	72 20 61 
  402605:	48 89 43 20          	mov    %rax,0x20(%rbx)
  402609:	c7 43 28 64 64 72 65 	movl   $0x65726464,0x28(%rbx)
  402610:	66 c7 43 2c 73 73    	movw   $0x7373,0x2c(%rbx)
  402616:	c6 43 2e 00          	movb   $0x0,0x2e(%rbx)
  40261a:	89 ef                	mov    %ebp,%edi
  40261c:	e8 0f e7 ff ff       	callq  400d30 <close@plt>
  402621:	b8 ff ff ff ff       	mov    $0xffffffff,%eax
  402626:	e9 21 06 00 00       	jmpq   402c4c <submitr+0x746>
  40262b:	48 c7 44 24 20 00 00 	movq   $0x0,0x20(%rsp)
  402632:	00 00 
  402634:	48 c7 44 24 28 00 00 	movq   $0x0,0x28(%rsp)
  40263b:	00 00 
  40263d:	66 c7 44 24 20 02 00 	movw   $0x2,0x20(%rsp)
  402644:	48 63 50 14          	movslq 0x14(%rax),%rdx
  402648:	48 8b 40 18          	mov    0x18(%rax),%rax
  40264c:	48 8b 30             	mov    (%rax),%rsi
  40264f:	48 8d 7c 24 24       	lea    0x24(%rsp),%rdi
  402654:	b9 0c 00 00 00       	mov    $0xc,%ecx
  402659:	e8 22 e7 ff ff       	callq  400d80 <__memmove_chk@plt>
  40265e:	0f b7 44 24 04       	movzwl 0x4(%rsp),%eax
  402663:	66 c1 c8 08          	ror    $0x8,%ax
  402667:	66 89 44 24 22       	mov    %ax,0x22(%rsp)
  40266c:	ba 10 00 00 00       	mov    $0x10,%edx
  402671:	48 8d 74 24 20       	lea    0x20(%rsp),%rsi
  402676:	89 ef                	mov    %ebp,%edi
  402678:	e8 e3 e7 ff ff       	callq  400e60 <connect@plt>
  40267d:	85 c0                	test   %eax,%eax
  40267f:	79 59                	jns    4026da <submitr+0x1d4>
  402681:	48 b8 45 72 72 6f 72 	movabs $0x55203a726f727245,%rax
  402688:	3a 20 55 
  40268b:	48 89 03             	mov    %rax,(%rbx)
  40268e:	48 b8 6e 61 62 6c 65 	movabs $0x6f7420656c62616e,%rax
  402695:	20 74 6f 
  402698:	48 89 43 08          	mov    %rax,0x8(%rbx)
  40269c:	48 b8 20 63 6f 6e 6e 	movabs $0x7463656e6e6f6320,%rax
  4026a3:	65 63 74 
  4026a6:	48 89 43 10          	mov    %rax,0x10(%rbx)
  4026aa:	48 b8 20 74 6f 20 74 	movabs $0x20656874206f7420,%rax
  4026b1:	68 65 20 
  4026b4:	48 89 43 18          	mov    %rax,0x18(%rbx)
  4026b8:	c7 43 20 73 65 72 76 	movl   $0x76726573,0x20(%rbx)
  4026bf:	66 c7 43 24 65 72    	movw   $0x7265,0x24(%rbx)
  4026c5:	c6 43 26 00          	movb   $0x0,0x26(%rbx)
  4026c9:	89 ef                	mov    %ebp,%edi
  4026cb:	e8 60 e6 ff ff       	callq  400d30 <close@plt>
  4026d0:	b8 ff ff ff ff       	mov    $0xffffffff,%eax
  4026d5:	e9 72 05 00 00       	jmpq   402c4c <submitr+0x746>
  4026da:	48 c7 c6 ff ff ff ff 	mov    $0xffffffffffffffff,%rsi
  4026e1:	b8 00 00 00 00       	mov    $0x0,%eax
  4026e6:	48 89 f1             	mov    %rsi,%rcx
  4026e9:	4c 89 ef             	mov    %r13,%rdi
  4026ec:	f2 ae                	repnz scas %es:(%rdi),%al
  4026ee:	48 f7 d1             	not    %rcx
  4026f1:	48 89 ca             	mov    %rcx,%rdx
  4026f4:	48 89 f1             	mov    %rsi,%rcx
  4026f7:	4c 89 ff             	mov    %r15,%rdi
  4026fa:	f2 ae                	repnz scas %es:(%rdi),%al
  4026fc:	48 f7 d1             	not    %rcx
  4026ff:	49 89 c8             	mov    %rcx,%r8
  402702:	48 89 f1             	mov    %rsi,%rcx
  402705:	4c 89 f7             	mov    %r14,%rdi
  402708:	f2 ae                	repnz scas %es:(%rdi),%al
  40270a:	48 f7 d1             	not    %rcx
  40270d:	4d 8d 44 08 fe       	lea    -0x2(%r8,%rcx,1),%r8
  402712:	48 89 f1             	mov    %rsi,%rcx
  402715:	48 8b 7c 24 08       	mov    0x8(%rsp),%rdi
  40271a:	f2 ae                	repnz scas %es:(%rdi),%al
  40271c:	48 89 c8             	mov    %rcx,%rax
  40271f:	48 f7 d0             	not    %rax
  402722:	49 8d 4c 00 ff       	lea    -0x1(%r8,%rax,1),%rcx
  402727:	48 8d 44 52 fd       	lea    -0x3(%rdx,%rdx,2),%rax
  40272c:	48 8d 84 01 80 00 00 	lea    0x80(%rcx,%rax,1),%rax
  402733:	00 
  402734:	48 3d 00 20 00 00    	cmp    $0x2000,%rax
  40273a:	76 72                	jbe    4027ae <submitr+0x2a8>
  40273c:	48 b8 45 72 72 6f 72 	movabs $0x52203a726f727245,%rax
  402743:	3a 20 52 
  402746:	48 89 03             	mov    %rax,(%rbx)
  402749:	48 b8 65 73 75 6c 74 	movabs $0x747320746c757365,%rax
  402750:	20 73 74 
  402753:	48 89 43 08          	mov    %rax,0x8(%rbx)
  402757:	48 b8 72 69 6e 67 20 	movabs $0x6f6f7420676e6972,%rax
  40275e:	74 6f 6f 
  402761:	48 89 43 10          	mov    %rax,0x10(%rbx)
  402765:	48 b8 20 6c 61 72 67 	movabs $0x202e656772616c20,%rax
  40276c:	65 2e 20 
  40276f:	48 89 43 18          	mov    %rax,0x18(%rbx)
  402773:	48 b8 49 6e 63 72 65 	movabs $0x6573616572636e49,%rax
  40277a:	61 73 65 
  40277d:	48 89 43 20          	mov    %rax,0x20(%rbx)
  402781:	48 b8 20 53 55 42 4d 	movabs $0x5254494d42555320,%rax
  402788:	49 54 52 
  40278b:	48 89 43 28          	mov    %rax,0x28(%rbx)
  40278f:	48 b8 5f 4d 41 58 42 	movabs $0x46554258414d5f,%rax
  402796:	55 46 00 
  402799:	48 89 43 30          	mov    %rax,0x30(%rbx)
  40279d:	89 ef                	mov    %ebp,%edi
  40279f:	e8 8c e5 ff ff       	callq  400d30 <close@plt>
  4027a4:	b8 ff ff ff ff       	mov    $0xffffffff,%eax
  4027a9:	e9 9e 04 00 00       	jmpq   402c4c <submitr+0x746>
  4027ae:	48 8d b4 24 40 40 00 	lea    0x4040(%rsp),%rsi
  4027b5:	00 
  4027b6:	b9 00 04 00 00       	mov    $0x400,%ecx
  4027bb:	b8 00 00 00 00       	mov    $0x0,%eax
  4027c0:	48 89 f7             	mov    %rsi,%rdi
  4027c3:	f3 48 ab             	rep stos %rax,%es:(%rdi)
  4027c6:	4c 89 ef             	mov    %r13,%rdi
  4027c9:	e8 2b fc ff ff       	callq  4023f9 <urlencode>
  4027ce:	85 c0                	test   %eax,%eax
  4027d0:	0f 89 8a 00 00 00    	jns    402860 <submitr+0x35a>
  4027d6:	48 b8 45 72 72 6f 72 	movabs $0x52203a726f727245,%rax
  4027dd:	3a 20 52 
  4027e0:	48 89 03             	mov    %rax,(%rbx)
  4027e3:	48 b8 65 73 75 6c 74 	movabs $0x747320746c757365,%rax
  4027ea:	20 73 74 
  4027ed:	48 89 43 08          	mov    %rax,0x8(%rbx)
  4027f1:	48 b8 72 69 6e 67 20 	movabs $0x6e6f6320676e6972,%rax
  4027f8:	63 6f 6e 
  4027fb:	48 89 43 10          	mov    %rax,0x10(%rbx)
  4027ff:	48 b8 74 61 69 6e 73 	movabs $0x6e6120736e696174,%rax
  402806:	20 61 6e 
  402809:	48 89 43 18          	mov    %rax,0x18(%rbx)
  40280d:	48 b8 20 69 6c 6c 65 	movabs $0x6c6167656c6c6920,%rax
  402814:	67 61 6c 
  402817:	48 89 43 20          	mov    %rax,0x20(%rbx)
  40281b:	48 b8 20 6f 72 20 75 	movabs $0x72706e7520726f20,%rax
  402822:	6e 70 72 
  402825:	48 89 43 28          	mov    %rax,0x28(%rbx)
  402829:	48 b8 69 6e 74 61 62 	movabs $0x20656c6261746e69,%rax
  402830:	6c 65 20 
  402833:	48 89 43 30          	mov    %rax,0x30(%rbx)
  402837:	48 b8 63 68 61 72 61 	movabs $0x6574636172616863,%rax
  40283e:	63 74 65 
  402841:	48 89 43 38          	mov    %rax,0x38(%rbx)
  402845:	66 c7 43 40 72 2e    	movw   $0x2e72,0x40(%rbx)
  40284b:	c6 43 42 00          	movb   $0x0,0x42(%rbx)
  40284f:	89 ef                	mov    %ebp,%edi
  402851:	e8 da e4 ff ff       	callq  400d30 <close@plt>
  402856:	b8 ff ff ff ff       	mov    $0xffffffff,%eax
  40285b:	e9 ec 03 00 00       	jmpq   402c4c <submitr+0x746>
  402860:	4c 8d ac 24 40 20 00 	lea    0x2040(%rsp),%r13
  402867:	00 
  402868:	41 54                	push   %r12
  40286a:	48 8d 84 24 48 40 00 	lea    0x4048(%rsp),%rax
  402871:	00 
  402872:	50                   	push   %rax
  402873:	4d 89 f9             	mov    %r15,%r9
  402876:	4d 89 f0             	mov    %r14,%r8
  402879:	b9 68 38 40 00       	mov    $0x403868,%ecx
  40287e:	ba 00 20 00 00       	mov    $0x2000,%edx
  402883:	be 01 00 00 00       	mov    $0x1,%esi
  402888:	4c 89 ef             	mov    %r13,%rdi
  40288b:	b8 00 00 00 00       	mov    $0x0,%eax
  402890:	e8 eb e5 ff ff       	callq  400e80 <__sprintf_chk@plt>
  402895:	b8 00 00 00 00       	mov    $0x0,%eax
  40289a:	48 c7 c1 ff ff ff ff 	mov    $0xffffffffffffffff,%rcx
  4028a1:	4c 89 ef             	mov    %r13,%rdi
  4028a4:	f2 ae                	repnz scas %es:(%rdi),%al
  4028a6:	48 f7 d1             	not    %rcx
  4028a9:	48 8d 51 ff          	lea    -0x1(%rcx),%rdx
  4028ad:	4c 89 ee             	mov    %r13,%rsi
  4028b0:	89 ef                	mov    %ebp,%edi
  4028b2:	e8 b1 f9 ff ff       	callq  402268 <rio_writen>
  4028b7:	48 83 c4 10          	add    $0x10,%rsp
  4028bb:	48 85 c0             	test   %rax,%rax
  4028be:	79 6e                	jns    40292e <submitr+0x428>
  4028c0:	48 b8 45 72 72 6f 72 	movabs $0x43203a726f727245,%rax
  4028c7:	3a 20 43 
  4028ca:	48 89 03             	mov    %rax,(%rbx)
  4028cd:	48 b8 6c 69 65 6e 74 	movabs $0x6e7520746e65696c,%rax
  4028d4:	20 75 6e 
  4028d7:	48 89 43 08          	mov    %rax,0x8(%rbx)
  4028db:	48 b8 61 62 6c 65 20 	movabs $0x206f7420656c6261,%rax
  4028e2:	74 6f 20 
  4028e5:	48 89 43 10          	mov    %rax,0x10(%rbx)
  4028e9:	48 b8 77 72 69 74 65 	movabs $0x6f74206574697277,%rax
  4028f0:	20 74 6f 
  4028f3:	48 89 43 18          	mov    %rax,0x18(%rbx)
  4028f7:	48 b8 20 74 68 65 20 	movabs $0x7365722065687420,%rax
  4028fe:	72 65 73 
  402901:	48 89 43 20          	mov    %rax,0x20(%rbx)
  402905:	48 b8 75 6c 74 20 73 	movabs $0x7672657320746c75,%rax
  40290c:	65 72 76 
  40290f:	48 89 43 28          	mov    %rax,0x28(%rbx)
  402913:	66 c7 43 30 65 72    	movw   $0x7265,0x30(%rbx)
  402919:	c6 43 32 00          	movb   $0x0,0x32(%rbx)
  40291d:	89 ef                	mov    %ebp,%edi
  40291f:	e8 0c e4 ff ff       	callq  400d30 <close@plt>
  402924:	b8 ff ff ff ff       	mov    $0xffffffff,%eax
  402929:	e9 1e 03 00 00       	jmpq   402c4c <submitr+0x746>
  40292e:	89 ee                	mov    %ebp,%esi
  402930:	48 8d 7c 24 30       	lea    0x30(%rsp),%rdi
  402935:	e8 ee f8 ff ff       	callq  402228 <rio_readinitb>
  40293a:	ba 00 20 00 00       	mov    $0x2000,%edx
  40293f:	48 8d b4 24 40 20 00 	lea    0x2040(%rsp),%rsi
  402946:	00 
  402947:	48 8d 7c 24 30       	lea    0x30(%rsp),%rdi
  40294c:	e8 fe f9 ff ff       	callq  40234f <rio_readlineb>
  402951:	48 85 c0             	test   %rax,%rax
  402954:	7f 7d                	jg     4029d3 <submitr+0x4cd>
  402956:	48 b8 45 72 72 6f 72 	movabs $0x43203a726f727245,%rax
  40295d:	3a 20 43 
  402960:	48 89 03             	mov    %rax,(%rbx)
  402963:	48 b8 6c 69 65 6e 74 	movabs $0x6e7520746e65696c,%rax
  40296a:	20 75 6e 
  40296d:	48 89 43 08          	mov    %rax,0x8(%rbx)
  402971:	48 b8 61 62 6c 65 20 	movabs $0x206f7420656c6261,%rax
  402978:	74 6f 20 
  40297b:	48 89 43 10          	mov    %rax,0x10(%rbx)
  40297f:	48 b8 72 65 61 64 20 	movabs $0x7269662064616572,%rax
  402986:	66 69 72 
  402989:	48 89 43 18          	mov    %rax,0x18(%rbx)
  40298d:	48 b8 73 74 20 68 65 	movabs $0x6564616568207473,%rax
  402994:	61 64 65 
  402997:	48 89 43 20          	mov    %rax,0x20(%rbx)
  40299b:	48 b8 72 20 66 72 6f 	movabs $0x72206d6f72662072,%rax
  4029a2:	6d 20 72 
  4029a5:	48 89 43 28          	mov    %rax,0x28(%rbx)
  4029a9:	48 b8 65 73 75 6c 74 	movabs $0x657320746c757365,%rax
  4029b0:	20 73 65 
  4029b3:	48 89 43 30          	mov    %rax,0x30(%rbx)
  4029b7:	c7 43 38 72 76 65 72 	movl   $0x72657672,0x38(%rbx)
  4029be:	c6 43 3c 00          	movb   $0x0,0x3c(%rbx)
  4029c2:	89 ef                	mov    %ebp,%edi
  4029c4:	e8 67 e3 ff ff       	callq  400d30 <close@plt>
  4029c9:	b8 ff ff ff ff       	mov    $0xffffffff,%eax
  4029ce:	e9 79 02 00 00       	jmpq   402c4c <submitr+0x746>
  4029d3:	4c 8d 84 24 40 80 00 	lea    0x8040(%rsp),%r8
  4029da:	00 
  4029db:	48 8d 4c 24 1c       	lea    0x1c(%rsp),%rcx
  4029e0:	48 8d 94 24 40 60 00 	lea    0x6040(%rsp),%rdx
  4029e7:	00 
  4029e8:	be df 38 40 00       	mov    $0x4038df,%esi
  4029ed:	48 8d bc 24 40 20 00 	lea    0x2040(%rsp),%rdi
  4029f4:	00 
  4029f5:	b8 00 00 00 00       	mov    $0x0,%eax
  4029fa:	e8 e1 e3 ff ff       	callq  400de0 <__isoc99_sscanf@plt>
  4029ff:	e9 95 00 00 00       	jmpq   402a99 <submitr+0x593>
  402a04:	ba 00 20 00 00       	mov    $0x2000,%edx
  402a09:	48 8d b4 24 40 20 00 	lea    0x2040(%rsp),%rsi
  402a10:	00 
  402a11:	48 8d 7c 24 30       	lea    0x30(%rsp),%rdi
  402a16:	e8 34 f9 ff ff       	callq  40234f <rio_readlineb>
  402a1b:	48 85 c0             	test   %rax,%rax
  402a1e:	7f 79                	jg     402a99 <submitr+0x593>
  402a20:	48 b8 45 72 72 6f 72 	movabs $0x43203a726f727245,%rax
  402a27:	3a 20 43 
  402a2a:	48 89 03             	mov    %rax,(%rbx)
  402a2d:	48 b8 6c 69 65 6e 74 	movabs $0x6e7520746e65696c,%rax
  402a34:	20 75 6e 
  402a37:	48 89 43 08          	mov    %rax,0x8(%rbx)
  402a3b:	48 b8 61 62 6c 65 20 	movabs $0x206f7420656c6261,%rax
  402a42:	74 6f 20 
  402a45:	48 89 43 10          	mov    %rax,0x10(%rbx)
  402a49:	48 b8 72 65 61 64 20 	movabs $0x6165682064616572,%rax
  402a50:	68 65 61 
  402a53:	48 89 43 18          	mov    %rax,0x18(%rbx)
  402a57:	48 b8 64 65 72 73 20 	movabs $0x6f72662073726564,%rax
  402a5e:	66 72 6f 
  402a61:	48 89 43 20          	mov    %rax,0x20(%rbx)
  402a65:	48 b8 6d 20 74 68 65 	movabs $0x657220656874206d,%rax
  402a6c:	20 72 65 
  402a6f:	48 89 43 28          	mov    %rax,0x28(%rbx)
  402a73:	48 b8 73 75 6c 74 20 	movabs $0x72657320746c7573,%rax
  402a7a:	73 65 72 
  402a7d:	48 89 43 30          	mov    %rax,0x30(%rbx)
  402a81:	c7 43 38 76 65 72 00 	movl   $0x726576,0x38(%rbx)
  402a88:	89 ef                	mov    %ebp,%edi
  402a8a:	e8 a1 e2 ff ff       	callq  400d30 <close@plt>
  402a8f:	b8 ff ff ff ff       	mov    $0xffffffff,%eax
  402a94:	e9 b3 01 00 00       	jmpq   402c4c <submitr+0x746>
  402a99:	0f b6 94 24 40 20 00 	movzbl 0x2040(%rsp),%edx
  402aa0:	00 
  402aa1:	b8 0d 00 00 00       	mov    $0xd,%eax
  402aa6:	29 d0                	sub    %edx,%eax
  402aa8:	75 1b                	jne    402ac5 <submitr+0x5bf>
  402aaa:	0f b6 94 24 41 20 00 	movzbl 0x2041(%rsp),%edx
  402ab1:	00 
  402ab2:	b8 0a 00 00 00       	mov    $0xa,%eax
  402ab7:	29 d0                	sub    %edx,%eax
  402ab9:	75 0a                	jne    402ac5 <submitr+0x5bf>
  402abb:	0f b6 84 24 42 20 00 	movzbl 0x2042(%rsp),%eax
  402ac2:	00 
  402ac3:	f7 d8                	neg    %eax
  402ac5:	85 c0                	test   %eax,%eax
  402ac7:	0f 85 37 ff ff ff    	jne    402a04 <submitr+0x4fe>
  402acd:	ba 00 20 00 00       	mov    $0x2000,%edx
  402ad2:	48 8d b4 24 40 20 00 	lea    0x2040(%rsp),%rsi
  402ad9:	00 
  402ada:	48 8d 7c 24 30       	lea    0x30(%rsp),%rdi
  402adf:	e8 6b f8 ff ff       	callq  40234f <rio_readlineb>
  402ae4:	48 85 c0             	test   %rax,%rax
  402ae7:	0f 8f 83 00 00 00    	jg     402b70 <submitr+0x66a>
  402aed:	48 b8 45 72 72 6f 72 	movabs $0x43203a726f727245,%rax
  402af4:	3a 20 43 
  402af7:	48 89 03             	mov    %rax,(%rbx)
  402afa:	48 b8 6c 69 65 6e 74 	movabs $0x6e7520746e65696c,%rax
  402b01:	20 75 6e 
  402b04:	48 89 43 08          	mov    %rax,0x8(%rbx)
  402b08:	48 b8 61 62 6c 65 20 	movabs $0x206f7420656c6261,%rax
  402b0f:	74 6f 20 
  402b12:	48 89 43 10          	mov    %rax,0x10(%rbx)
  402b16:	48 b8 72 65 61 64 20 	movabs $0x6174732064616572,%rax
  402b1d:	73 74 61 
  402b20:	48 89 43 18          	mov    %rax,0x18(%rbx)
  402b24:	48 b8 74 75 73 20 6d 	movabs $0x7373656d20737574,%rax
  402b2b:	65 73 73 
  402b2e:	48 89 43 20          	mov    %rax,0x20(%rbx)
  402b32:	48 b8 61 67 65 20 66 	movabs $0x6d6f726620656761,%rax
  402b39:	72 6f 6d 
  402b3c:	48 89 43 28          	mov    %rax,0x28(%rbx)
  402b40:	48 b8 20 72 65 73 75 	movabs $0x20746c7573657220,%rax
  402b47:	6c 74 20 
  402b4a:	48 89 43 30          	mov    %rax,0x30(%rbx)
  402b4e:	c7 43 38 73 65 72 76 	movl   $0x76726573,0x38(%rbx)
  402b55:	66 c7 43 3c 65 72    	movw   $0x7265,0x3c(%rbx)
  402b5b:	c6 43 3e 00          	movb   $0x0,0x3e(%rbx)
  402b5f:	89 ef                	mov    %ebp,%edi
  402b61:	e8 ca e1 ff ff       	callq  400d30 <close@plt>
  402b66:	b8 ff ff ff ff       	mov    $0xffffffff,%eax
  402b6b:	e9 dc 00 00 00       	jmpq   402c4c <submitr+0x746>
  402b70:	44 8b 44 24 1c       	mov    0x1c(%rsp),%r8d
  402b75:	41 81 f8 c8 00 00 00 	cmp    $0xc8,%r8d
  402b7c:	74 37                	je     402bb5 <submitr+0x6af>
  402b7e:	4c 8d 8c 24 40 80 00 	lea    0x8040(%rsp),%r9
  402b85:	00 
  402b86:	b9 a8 38 40 00       	mov    $0x4038a8,%ecx
  402b8b:	48 c7 c2 ff ff ff ff 	mov    $0xffffffffffffffff,%rdx
  402b92:	be 01 00 00 00       	mov    $0x1,%esi
  402b97:	48 89 df             	mov    %rbx,%rdi
  402b9a:	b8 00 00 00 00       	mov    $0x0,%eax
  402b9f:	e8 dc e2 ff ff       	callq  400e80 <__sprintf_chk@plt>
  402ba4:	89 ef                	mov    %ebp,%edi
  402ba6:	e8 85 e1 ff ff       	callq  400d30 <close@plt>
  402bab:	b8 ff ff ff ff       	mov    $0xffffffff,%eax
  402bb0:	e9 97 00 00 00       	jmpq   402c4c <submitr+0x746>
  402bb5:	48 8d b4 24 40 20 00 	lea    0x2040(%rsp),%rsi
  402bbc:	00 
  402bbd:	48 89 df             	mov    %rbx,%rdi
  402bc0:	e8 fb e0 ff ff       	callq  400cc0 <strcpy@plt>
  402bc5:	89 ef                	mov    %ebp,%edi
  402bc7:	e8 64 e1 ff ff       	callq  400d30 <close@plt>
  402bcc:	0f b6 03             	movzbl (%rbx),%eax
  402bcf:	ba 4f 00 00 00       	mov    $0x4f,%edx
  402bd4:	29 c2                	sub    %eax,%edx
  402bd6:	75 22                	jne    402bfa <submitr+0x6f4>
  402bd8:	0f b6 4b 01          	movzbl 0x1(%rbx),%ecx
  402bdc:	b8 4b 00 00 00       	mov    $0x4b,%eax
  402be1:	29 c8                	sub    %ecx,%eax
  402be3:	75 17                	jne    402bfc <submitr+0x6f6>
  402be5:	0f b6 4b 02          	movzbl 0x2(%rbx),%ecx
  402be9:	b8 0a 00 00 00       	mov    $0xa,%eax
  402bee:	29 c8                	sub    %ecx,%eax
  402bf0:	75 0a                	jne    402bfc <submitr+0x6f6>
  402bf2:	0f b6 43 03          	movzbl 0x3(%rbx),%eax
  402bf6:	f7 d8                	neg    %eax
  402bf8:	eb 02                	jmp    402bfc <submitr+0x6f6>
  402bfa:	89 d0                	mov    %edx,%eax
  402bfc:	85 c0                	test   %eax,%eax
  402bfe:	74 40                	je     402c40 <submitr+0x73a>
  402c00:	bf f0 38 40 00       	mov    $0x4038f0,%edi
  402c05:	b9 05 00 00 00       	mov    $0x5,%ecx
  402c0a:	48 89 de             	mov    %rbx,%rsi
  402c0d:	f3 a6                	repz cmpsb %es:(%rdi),%ds:(%rsi)
  402c0f:	0f 97 c0             	seta   %al
  402c12:	0f 92 c1             	setb   %cl
  402c15:	29 c8                	sub    %ecx,%eax
  402c17:	0f be c0             	movsbl %al,%eax
  402c1a:	85 c0                	test   %eax,%eax
  402c1c:	74 2e                	je     402c4c <submitr+0x746>
  402c1e:	85 d2                	test   %edx,%edx
  402c20:	75 13                	jne    402c35 <submitr+0x72f>
  402c22:	0f b6 43 01          	movzbl 0x1(%rbx),%eax
  402c26:	ba 4b 00 00 00       	mov    $0x4b,%edx
  402c2b:	29 c2                	sub    %eax,%edx
  402c2d:	75 06                	jne    402c35 <submitr+0x72f>
  402c2f:	0f b6 53 02          	movzbl 0x2(%rbx),%edx
  402c33:	f7 da                	neg    %edx
  402c35:	85 d2                	test   %edx,%edx
  402c37:	75 0e                	jne    402c47 <submitr+0x741>
  402c39:	b8 00 00 00 00       	mov    $0x0,%eax
  402c3e:	eb 0c                	jmp    402c4c <submitr+0x746>
  402c40:	b8 00 00 00 00       	mov    $0x0,%eax
  402c45:	eb 05                	jmp    402c4c <submitr+0x746>
  402c47:	b8 ff ff ff ff       	mov    $0xffffffff,%eax
  402c4c:	48 8b 9c 24 48 a0 00 	mov    0xa048(%rsp),%rbx
  402c53:	00 
  402c54:	64 48 33 1c 25 28 00 	xor    %fs:0x28,%rbx
  402c5b:	00 00 
  402c5d:	74 05                	je     402c64 <submitr+0x75e>
  402c5f:	e8 8c e0 ff ff       	callq  400cf0 <__stack_chk_fail@plt>
  402c64:	48 81 c4 58 a0 00 00 	add    $0xa058,%rsp
  402c6b:	5b                   	pop    %rbx
  402c6c:	5d                   	pop    %rbp
  402c6d:	41 5c                	pop    %r12
  402c6f:	41 5d                	pop    %r13
  402c71:	41 5e                	pop    %r14
  402c73:	41 5f                	pop    %r15
  402c75:	c3                   	retq   

0000000000402c76 <init_timeout>:
  402c76:	85 ff                	test   %edi,%edi
  402c78:	74 23                	je     402c9d <init_timeout+0x27>
  402c7a:	53                   	push   %rbx
  402c7b:	89 fb                	mov    %edi,%ebx
  402c7d:	85 ff                	test   %edi,%edi
  402c7f:	79 05                	jns    402c86 <init_timeout+0x10>
  402c81:	bb 00 00 00 00       	mov    $0x0,%ebx
  402c86:	be 3a 22 40 00       	mov    $0x40223a,%esi
  402c8b:	bf 0e 00 00 00       	mov    $0xe,%edi
  402c90:	e8 cb e0 ff ff       	callq  400d60 <signal@plt>
  402c95:	89 df                	mov    %ebx,%edi
  402c97:	e8 84 e0 ff ff       	callq  400d20 <alarm@plt>
  402c9c:	5b                   	pop    %rbx
  402c9d:	f3 c3                	repz retq 

0000000000402c9f <init_driver>:
  402c9f:	55                   	push   %rbp
  402ca0:	53                   	push   %rbx
  402ca1:	48 83 ec 28          	sub    $0x28,%rsp
  402ca5:	48 89 fd             	mov    %rdi,%rbp
  402ca8:	64 48 8b 04 25 28 00 	mov    %fs:0x28,%rax
  402caf:	00 00 
  402cb1:	48 89 44 24 18       	mov    %rax,0x18(%rsp)
  402cb6:	31 c0                	xor    %eax,%eax
  402cb8:	be 01 00 00 00       	mov    $0x1,%esi
  402cbd:	bf 0d 00 00 00       	mov    $0xd,%edi
  402cc2:	e8 99 e0 ff ff       	callq  400d60 <signal@plt>
  402cc7:	be 01 00 00 00       	mov    $0x1,%esi
  402ccc:	bf 1d 00 00 00       	mov    $0x1d,%edi
  402cd1:	e8 8a e0 ff ff       	callq  400d60 <signal@plt>
  402cd6:	be 01 00 00 00       	mov    $0x1,%esi
  402cdb:	bf 1d 00 00 00       	mov    $0x1d,%edi
  402ce0:	e8 7b e0 ff ff       	callq  400d60 <signal@plt>
  402ce5:	ba 00 00 00 00       	mov    $0x0,%edx
  402cea:	be 01 00 00 00       	mov    $0x1,%esi
  402cef:	bf 02 00 00 00       	mov    $0x2,%edi
  402cf4:	e8 97 e1 ff ff       	callq  400e90 <socket@plt>
  402cf9:	85 c0                	test   %eax,%eax
  402cfb:	79 4f                	jns    402d4c <init_driver+0xad>
  402cfd:	48 b8 45 72 72 6f 72 	movabs $0x43203a726f727245,%rax
  402d04:	3a 20 43 
  402d07:	48 89 45 00          	mov    %rax,0x0(%rbp)
  402d0b:	48 b8 6c 69 65 6e 74 	movabs $0x6e7520746e65696c,%rax
  402d12:	20 75 6e 
  402d15:	48 89 45 08          	mov    %rax,0x8(%rbp)
  402d19:	48 b8 61 62 6c 65 20 	movabs $0x206f7420656c6261,%rax
  402d20:	74 6f 20 
  402d23:	48 89 45 10          	mov    %rax,0x10(%rbp)
  402d27:	48 b8 63 72 65 61 74 	movabs $0x7320657461657263,%rax
  402d2e:	65 20 73 
  402d31:	48 89 45 18          	mov    %rax,0x18(%rbp)
  402d35:	c7 45 20 6f 63 6b 65 	movl   $0x656b636f,0x20(%rbp)
  402d3c:	66 c7 45 24 74 00    	movw   $0x74,0x24(%rbp)
  402d42:	b8 ff ff ff ff       	mov    $0xffffffff,%eax
  402d47:	e9 2a 01 00 00       	jmpq   402e76 <init_driver+0x1d7>
  402d4c:	89 c3                	mov    %eax,%ebx
  402d4e:	bf f5 38 40 00       	mov    $0x4038f5,%edi
  402d53:	e8 18 e0 ff ff       	callq  400d70 <gethostbyname@plt>
  402d58:	48 85 c0             	test   %rax,%rax
  402d5b:	75 68                	jne    402dc5 <init_driver+0x126>
  402d5d:	48 b8 45 72 72 6f 72 	movabs $0x44203a726f727245,%rax
  402d64:	3a 20 44 
  402d67:	48 89 45 00          	mov    %rax,0x0(%rbp)
  402d6b:	48 b8 4e 53 20 69 73 	movabs $0x6e7520736920534e,%rax
  402d72:	20 75 6e 
  402d75:	48 89 45 08          	mov    %rax,0x8(%rbp)
  402d79:	48 b8 61 62 6c 65 20 	movabs $0x206f7420656c6261,%rax
  402d80:	74 6f 20 
  402d83:	48 89 45 10          	mov    %rax,0x10(%rbp)
  402d87:	48 b8 72 65 73 6f 6c 	movabs $0x2065766c6f736572,%rax
  402d8e:	76 65 20 
  402d91:	48 89 45 18          	mov    %rax,0x18(%rbp)
  402d95:	48 b8 73 65 72 76 65 	movabs $0x6120726576726573,%rax
  402d9c:	72 20 61 
  402d9f:	48 89 45 20          	mov    %rax,0x20(%rbp)
  402da3:	c7 45 28 64 64 72 65 	movl   $0x65726464,0x28(%rbp)
  402daa:	66 c7 45 2c 73 73    	movw   $0x7373,0x2c(%rbp)
  402db0:	c6 45 2e 00          	movb   $0x0,0x2e(%rbp)
  402db4:	89 df                	mov    %ebx,%edi
  402db6:	e8 75 df ff ff       	callq  400d30 <close@plt>
  402dbb:	b8 ff ff ff ff       	mov    $0xffffffff,%eax
  402dc0:	e9 b1 00 00 00       	jmpq   402e76 <init_driver+0x1d7>
  402dc5:	48 c7 04 24 00 00 00 	movq   $0x0,(%rsp)
  402dcc:	00 
  402dcd:	48 c7 44 24 08 00 00 	movq   $0x0,0x8(%rsp)
  402dd4:	00 00 
  402dd6:	66 c7 04 24 02 00    	movw   $0x2,(%rsp)
  402ddc:	48 63 50 14          	movslq 0x14(%rax),%rdx
  402de0:	48 8b 40 18          	mov    0x18(%rax),%rax
  402de4:	48 8b 30             	mov    (%rax),%rsi
  402de7:	48 8d 7c 24 04       	lea    0x4(%rsp),%rdi
  402dec:	b9 0c 00 00 00       	mov    $0xc,%ecx
  402df1:	e8 8a df ff ff       	callq  400d80 <__memmove_chk@plt>
  402df6:	66 c7 44 24 02 3c 9a 	movw   $0x9a3c,0x2(%rsp)
  402dfd:	ba 10 00 00 00       	mov    $0x10,%edx
  402e02:	48 89 e6             	mov    %rsp,%rsi
  402e05:	89 df                	mov    %ebx,%edi
  402e07:	e8 54 e0 ff ff       	callq  400e60 <connect@plt>
  402e0c:	85 c0                	test   %eax,%eax
  402e0e:	79 50                	jns    402e60 <init_driver+0x1c1>
  402e10:	48 b8 45 72 72 6f 72 	movabs $0x55203a726f727245,%rax
  402e17:	3a 20 55 
  402e1a:	48 89 45 00          	mov    %rax,0x0(%rbp)
  402e1e:	48 b8 6e 61 62 6c 65 	movabs $0x6f7420656c62616e,%rax
  402e25:	20 74 6f 
  402e28:	48 89 45 08          	mov    %rax,0x8(%rbp)
  402e2c:	48 b8 20 63 6f 6e 6e 	movabs $0x7463656e6e6f6320,%rax
  402e33:	65 63 74 
  402e36:	48 89 45 10          	mov    %rax,0x10(%rbp)
  402e3a:	48 b8 20 74 6f 20 73 	movabs $0x76726573206f7420,%rax
  402e41:	65 72 76 
  402e44:	48 89 45 18          	mov    %rax,0x18(%rbp)
  402e48:	66 c7 45 20 65 72    	movw   $0x7265,0x20(%rbp)
  402e4e:	c6 45 22 00          	movb   $0x0,0x22(%rbp)
  402e52:	89 df                	mov    %ebx,%edi
  402e54:	e8 d7 de ff ff       	callq  400d30 <close@plt>
  402e59:	b8 ff ff ff ff       	mov    $0xffffffff,%eax
  402e5e:	eb 16                	jmp    402e76 <init_driver+0x1d7>
  402e60:	89 df                	mov    %ebx,%edi
  402e62:	e8 c9 de ff ff       	callq  400d30 <close@plt>
  402e67:	66 c7 45 00 4f 4b    	movw   $0x4b4f,0x0(%rbp)
  402e6d:	c6 45 02 00          	movb   $0x0,0x2(%rbp)
  402e71:	b8 00 00 00 00       	mov    $0x0,%eax
  402e76:	48 8b 4c 24 18       	mov    0x18(%rsp),%rcx
  402e7b:	64 48 33 0c 25 28 00 	xor    %fs:0x28,%rcx
  402e82:	00 00 
  402e84:	74 05                	je     402e8b <init_driver+0x1ec>
  402e86:	e8 65 de ff ff       	callq  400cf0 <__stack_chk_fail@plt>
  402e8b:	48 83 c4 28          	add    $0x28,%rsp
  402e8f:	5b                   	pop    %rbx
  402e90:	5d                   	pop    %rbp
  402e91:	c3                   	retq   

0000000000402e92 <driver_post>:
  402e92:	53                   	push   %rbx
  402e93:	4c 89 cb             	mov    %r9,%rbx
  402e96:	45 85 c0             	test   %r8d,%r8d
  402e99:	74 27                	je     402ec2 <driver_post+0x30>
  402e9b:	48 89 ca             	mov    %rcx,%rdx
  402e9e:	be 0c 39 40 00       	mov    $0x40390c,%esi
  402ea3:	bf 01 00 00 00       	mov    $0x1,%edi
  402ea8:	b8 00 00 00 00       	mov    $0x0,%eax
  402ead:	e8 4e df ff ff       	callq  400e00 <__printf_chk@plt>
  402eb2:	66 c7 03 4f 4b       	movw   $0x4b4f,(%rbx)
  402eb7:	c6 43 02 00          	movb   $0x0,0x2(%rbx)
  402ebb:	b8 00 00 00 00       	mov    $0x0,%eax
  402ec0:	eb 3f                	jmp    402f01 <driver_post+0x6f>
  402ec2:	48 85 ff             	test   %rdi,%rdi
  402ec5:	74 2c                	je     402ef3 <driver_post+0x61>
  402ec7:	80 3f 00             	cmpb   $0x0,(%rdi)
  402eca:	74 27                	je     402ef3 <driver_post+0x61>
  402ecc:	48 83 ec 08          	sub    $0x8,%rsp
  402ed0:	41 51                	push   %r9
  402ed2:	49 89 c9             	mov    %rcx,%r9
  402ed5:	49 89 d0             	mov    %rdx,%r8
  402ed8:	48 89 f9             	mov    %rdi,%rcx
  402edb:	48 89 f2             	mov    %rsi,%rdx
  402ede:	be 9a 3c 00 00       	mov    $0x3c9a,%esi
  402ee3:	bf f5 38 40 00       	mov    $0x4038f5,%edi
  402ee8:	e8 19 f6 ff ff       	callq  402506 <submitr>
  402eed:	48 83 c4 10          	add    $0x10,%rsp
  402ef1:	eb 0e                	jmp    402f01 <driver_post+0x6f>
  402ef3:	66 c7 03 4f 4b       	movw   $0x4b4f,(%rbx)
  402ef8:	c6 43 02 00          	movb   $0x0,0x2(%rbx)
  402efc:	b8 00 00 00 00       	mov    $0x0,%eax
  402f01:	5b                   	pop    %rbx
  402f02:	c3                   	retq   

0000000000402f03 <check>:
  402f03:	89 f8                	mov    %edi,%eax
  402f05:	c1 e8 1c             	shr    $0x1c,%eax
  402f08:	85 c0                	test   %eax,%eax
  402f0a:	74 1d                	je     402f29 <check+0x26>
  402f0c:	b9 00 00 00 00       	mov    $0x0,%ecx
  402f11:	eb 0b                	jmp    402f1e <check+0x1b>
  402f13:	89 f8                	mov    %edi,%eax
  402f15:	d3 e8                	shr    %cl,%eax
  402f17:	3c 0a                	cmp    $0xa,%al
  402f19:	74 14                	je     402f2f <check+0x2c>
  402f1b:	83 c1 08             	add    $0x8,%ecx
  402f1e:	83 f9 1f             	cmp    $0x1f,%ecx
  402f21:	7e f0                	jle    402f13 <check+0x10>
  402f23:	b8 01 00 00 00       	mov    $0x1,%eax
  402f28:	c3                   	retq   
  402f29:	b8 00 00 00 00       	mov    $0x0,%eax
  402f2e:	c3                   	retq   
  402f2f:	b8 00 00 00 00       	mov    $0x0,%eax
  402f34:	c3                   	retq   

0000000000402f35 <gencookie>:
  402f35:	53                   	push   %rbx
  402f36:	83 c7 01             	add    $0x1,%edi
  402f39:	e8 62 dd ff ff       	callq  400ca0 <srandom@plt>
  402f3e:	e8 7d de ff ff       	callq  400dc0 <random@plt>
  402f43:	89 c3                	mov    %eax,%ebx
  402f45:	89 c7                	mov    %eax,%edi
  402f47:	e8 b7 ff ff ff       	callq  402f03 <check>
  402f4c:	85 c0                	test   %eax,%eax
  402f4e:	74 ee                	je     402f3e <gencookie+0x9>
  402f50:	89 d8                	mov    %ebx,%eax
  402f52:	5b                   	pop    %rbx
  402f53:	c3                   	retq   
  402f54:	66 2e 0f 1f 84 00 00 	nopw   %cs:0x0(%rax,%rax,1)
  402f5b:	00 00 00 
  402f5e:	66 90                	xchg   %ax,%ax

0000000000402f60 <__libc_csu_init>:
  402f60:	41 57                	push   %r15
  402f62:	41 56                	push   %r14
  402f64:	41 89 ff             	mov    %edi,%r15d
  402f67:	41 55                	push   %r13
  402f69:	41 54                	push   %r12
  402f6b:	4c 8d 25 9e 1e 20 00 	lea    0x201e9e(%rip),%r12        # 604e10 <__frame_dummy_init_array_entry>
  402f72:	55                   	push   %rbp
  402f73:	48 8d 2d 9e 1e 20 00 	lea    0x201e9e(%rip),%rbp        # 604e18 <__init_array_end>
  402f7a:	53                   	push   %rbx
  402f7b:	49 89 f6             	mov    %rsi,%r14
  402f7e:	49 89 d5             	mov    %rdx,%r13
  402f81:	4c 29 e5             	sub    %r12,%rbp
  402f84:	48 83 ec 08          	sub    $0x8,%rsp
  402f88:	48 c1 fd 03          	sar    $0x3,%rbp
  402f8c:	e8 b7 dc ff ff       	callq  400c48 <_init>
  402f91:	48 85 ed             	test   %rbp,%rbp
  402f94:	74 20                	je     402fb6 <__libc_csu_init+0x56>
  402f96:	31 db                	xor    %ebx,%ebx
  402f98:	0f 1f 84 00 00 00 00 	nopl   0x0(%rax,%rax,1)
  402f9f:	00 
  402fa0:	4c 89 ea             	mov    %r13,%rdx
  402fa3:	4c 89 f6             	mov    %r14,%rsi
  402fa6:	44 89 ff             	mov    %r15d,%edi
  402fa9:	41 ff 14 dc          	callq  *(%r12,%rbx,8)
  402fad:	48 83 c3 01          	add    $0x1,%rbx
  402fb1:	48 39 eb             	cmp    %rbp,%rbx
  402fb4:	75 ea                	jne    402fa0 <__libc_csu_init+0x40>
  402fb6:	48 83 c4 08          	add    $0x8,%rsp
  402fba:	5b                   	pop    %rbx
  402fbb:	5d                   	pop    %rbp
  402fbc:	41 5c                	pop    %r12
  402fbe:	41 5d                	pop    %r13
  402fc0:	41 5e                	pop    %r14
  402fc2:	41 5f                	pop    %r15
  402fc4:	c3                   	retq   
  402fc5:	90                   	nop
  402fc6:	66 2e 0f 1f 84 00 00 	nopw   %cs:0x0(%rax,%rax,1)
  402fcd:	00 00 00 

0000000000402fd0 <__libc_csu_fini>:
  402fd0:	f3 c3                	repz retq 

Disassembly of section .fini:

0000000000402fd4 <_fini>:
  402fd4:	48 83 ec 08          	sub    $0x8,%rsp
  402fd8:	48 83 c4 08          	add    $0x8,%rsp
  402fdc:	c3                   	retq   
